c__builtin__
set
p0
((lp1
S'http://www.gwern.netfiction/The%20Ones%20Who%20Walk%20Towards%20Acre'
p2
aS'http://www.gwern.net#cryptobitcoinZen%20and%20the%20Art%20of%20Bicycle%20Maintenance'
p3
aS'http://www.gwern.net#cs#wikipedia'
p4
aS'http://www.gwern.net#psychologyfiction/Brave%20poem'
p5
aS'http://www.gwern.net#psychologyBook%20reviews'
p6
aS'http://www.gwern.netotaku'
p7
aS'http://www.gwern.net#psychologyConscientiousness%20and%20online%20education'
p8
aS'http://www.gwern.net#cs2014%20spirulina'
p9
aS'http://www.gwern.net#psychology#cs'
p10
aS'http://www.gwern.net#cryptobitcoin./Black-market%20archives'
p11
aS'http://www.gwern.netSunk%20cost'
p12
aS'http://www.gwern.net#psychology./docs/1955-nash'
p13
aS'http://www.gwern.net#psychologyNootropics'
p14
aS'http://www.gwern.netfiction/Brave%20poem'
p15
aS'http://www.gwern.net#psychology./docs/eva/2010-crc'
p16
aS'http://www.gwern.net#cskomm-susser-tod'
p17
aS'http://www.gwern.net#cryptobitcoin./About#belief-tags'
p18
aS'http://www.gwern.net./docs/eva/2004-okada'
p19
aS'http://www.gwern.net#csfiction/Men%20of%20Iron'
p20
aS'http://www.gwern.net#psychologyDNB%20meta-analysis'
p21
aS'http://www.gwern.net#psychologyResilient%20Haskell%20Software'
p22
aS'http://www.gwern.net#cryptobitcoinFMP%20parody'
p23
aS'http://www.gwern.net#cs./docs/eva/2011-house'
p24
aS'http://www.gwern.net#cryptobitcoinArchiving%20URLs'
p25
aS'http://www.gwern.net#csfiction/The%20Mulberry%20Tree'
p26
aS'http://www.gwern.net#cs./About'
p27
aS'http://www.gwern.net#cryptobitcoinThe%203%20Grenades'
p28
aS'http://www.gwern.net#psychology#politics'
p29
aS'http://www.gwern.net#cryptobitcoinPrediction%20markets'
p30
aS'http://www.gwern.net#cryptobitcoin./docs/1985-hofstadter'
p31
aS'http://www.gwern.net#csNicotine'
p32
aS'http://www.gwern.net#psychologyMelatonin'
p33
aS'http://www.gwern.net#csIodine'
p34
aS'http://www.gwern.netJustifications'
p35
aS'http://www.gwern.net#cryptobitcoinCopyright'
p36
aS'http://www.gwern.netfiction/The%20Mulberry%20Tree'
p37
aS'http://www.gwern.net#csThe%203%20Grenades'
p38
aS'http://www.gwern.net#psychologyWikipedia%20and%20Knol'
p39
aS'http://www.gwern.netCausality'
p40
aS'http://www.gwern.net#psychologysicp/Introduction'
p41
aS'http://www.gwern.net./docs/eva/2002-notenki-memoirs'
p42
aS'http://www.gwern.net#cs./tags/newsletter'
p43
aS'http://www.gwern.net#csThe%20Narrowing%20Circle'
p44
aS'http://www.gwern.netImmoral%20Books'
p45
aS'http://www.gwern.net#cryptobitcoinhpmor#analysis'
p46
aS'http://www.gwern.netHaskell%20Summer%20of%20Code'
p47
aS'http://www.gwern.net#cryptobitcoin#practical'
p48
aS'http://www.gwern.net#cs#fiction'
p49
aS'http://www.gwern.net#csLunar%20sleep'
p50
aS'http://www.gwern.net./Statistical%20notes'
p51
aS'http://www.gwern.net./docs/eva/1996-animerica-conscience-otaking'
p52
aS'http://www.gwern.netAgainst%20The%20Miletians'
p53
aS'http://www.gwern.netOn%20Disrespect'
p54
aS'http://www.gwern.netDeath%20Note%20script'
p55
aS'http://www.gwern.net#csModafinil'
p56
aS'http://www.gwern.net#psychologyOn%20Disrespect'
p57
aS'http://www.gwern.net#cryptobitcoin#philosophy'
p58
aS'http://www.gwern.net#cryptobitcoinfiction/Menard'
p59
aS'http://www.gwern.netIsomorphisms'
p60
aS'http://www.gwern.net#cssicp/Introduction'
p61
aS'http://www.gwern.netIn%20Defense%20Of%20Inclusionism'
p62
aS'http://www.gwern.netfiction/Hybrid%20Rainbow'
p63
aS'http://www.gwern.net#cryptobitcoinhaskell/Wikipedia%20RSS%20Archive%20Bot'
p64
aS'http://www.gwern.net#psychology./docs/eva/2004-okada'
p65
aS'http://www.gwern.net#psychology./Black-market%20survival'
p66
aS'http://www.gwern.net#csChoosing%20Software'
p67
aS'http://www.gwern.net#cryptobitcoinOntological%20pantheism'
p68
aS'http://www.gwern.net#psychologyDrug%20heuristics'
p69
aS'http://www.gwern.net2014%20spirulina'
p70
aS'http://www.gwern.netThe%20Narrowing%20Circle'
p71
aS'http://www.gwern.netDNB%20meta-analysis'
p72
aS'http://www.gwern.net#psychologyfiction/Hybrid%20Rainbow'
p73
aS'http://www.gwern.net#cryptobitcoinCausality'
p74
aS'http://www.gwern.net#csSlowing%20Moore%27s%20Law'
p75
aS'http://www.gwern.net#csAnime%20criticism%20is%20not%20about%20quality'
p76
aS'http://www.gwern.netCulture%20is%20not%20about%20Esthetics'
p77
aS'http://www.gwern.net#psychologyfiction/The%20Mulberry%20Tree'
p78
aS'http://www.gwern.net#cryptobitcoinChoosing%20Software'
p79
aS'http://www.gwern.net#psychologyThe%20Melancholy%20of%20Subculture%20Society'
p80
aS'http://www.gwern.net./docs/2007-wolfe'
p81
aS'http://www.gwern.net#anime'
p82
aS'https://creativecommons.org/publicdomain/zero/1.0/'
p83
aS'http://www.gwern.net#cshaskell/Wikipedia%20Archive%20Bot'
p84
aS'http://www.gwern.net#psychologyMelon'
p85
aS'http://www.gwern.net#csplastination'
p86
aS'http://www.gwern.net#csfiction/Dying%20Outside'
p87
aS'http://www.gwern.net./Resorter'
p88
aS'http://www.gwern.net#cs./Changelog'
p89
aS'http://www.gwern.netPrediction%20markets'
p90
aS'http://www.gwern.net./docs/eva/2005-sawaragi'
p91
aS'http://www.gwern.netResilient%20Haskell%20Software'
p92
aS'http://www.gwern.net#cryptobitcoinAbout'
p93
aS'http://www.gwern.net#csCulture%20is%20not%20about%20Esthetics'
p94
aS'http://www.gwern.netZen%20and%20the%20Art%20of%20Bicycle%20Maintenance'
p95
aS'http://www.gwern.net#cs./Greenland'
p96
aS'http://www.gwern.net#cryptobitcoinWikipedia%20and%20YouTube'
p97
aS'http://www.gwern.net#cryptobitcoinfiction/A%20Human%20Story'
p98
aS'http://www.gwern.net#cryptobitcoinIsomorphisms'
p99
aS'http://www.gwern.netYawgoog%20injustice'
p100
aS'http://www.gwern.net#psychologyBlackmail'
p101
aS'http://www.gwern.netConsole%20Insurance'
p102
aS'http://www.gwern.net#cryptobitcoin2006%20Cornell%20TKD'
p103
aS'http://www.gwern.netfiction/How%20the%20Panther%20got%20Black'
p104
aS'http://www.gwern.net#cryptobitcoinNotes'
p105
aS'http://www.gwern.netEvolutionary%20Licenses'
p106
aS'http://www.gwern.net#psychologyDNB%20FAQ'
p107
aS'http://www.gwern.net#cryptobitcoinLunar%20sleep'
p108
aS'http://www.gwern.net#psychologySuzanne%20Delage'
p109
aS'http://www.gwern.net#psychologyEvolutionary%20Licenses'
p110
aS'http://www.gwern.net#cryptobitcoinAnime%20criticism%20is%20not%20about%20quality'
p111
aS'http://www.gwern.net#psychologyGirl%20Scouts%20and%20good%20governance'
p112
aS'http://www.gwern.netWikipedia%20and%20Knol'
p113
aS'http://www.gwern.net#cryptobitcoin./docs/eva/2005-murakami'
p114
aS'http://www.gwern.net#psychologyNotes'
p115
aS'http://www.gwern.net#cryptobitcoin./docs/eva/2003-oshii-izubuchi'
p116
aS'http://www.gwern.net#csThe%20Melancholy%20of%20Kyon'
p117
aS'http://www.gwern.net#cryptobitcoin./Turing-complete'
p118
aS'http://www.gwern.nethaskell/Wikipedia%20RSS%20Archive%20Bot'
p119
aS'http://www.gwern.netLewis%20meditation'
p120
aS'http://www.gwern.net#psychologyTerrorism%20is%20not%20about%20Terror'
p121
aS'http://www.gwern.net#cryptobitcoin#politics'
p122
aS'http://www.gwern.net#csWikipedia%20and%20YouTube'
p123
aS'http://www.gwern.net#psychologyOn%20Stress'
p124
aS'http://www.gwern.net#cs./Statistical%20notes'
p125
aS'http://www.gwern.net#csfiction/Cloud%20Nine'
p126
aS'http://www.gwern.net#csGoogle%20shutdowns'
p127
aS'http://www.gwern.net./docs/eva/1997-animeland-may-hideakianno-interview-english'
p128
aS'http://www.gwern.net./docs/sr/2013-power'
p129
aS'http://www.gwern.netWikipedia%20and%20Dark%20Side%20Editing'
p130
aS'http://www.gwern.net#cs./docs/eva/2004-okada'
p131
aS'http://www.gwern.net#psychologyfiction/Poems'
p132
aS'http://www.gwern.net#csResilient%20Haskell%20Software'
p133
aS'http://www.gwern.net#cs./Resorter'
p134
aS'http://www.gwern.net#psychologyWooden%20pillows'
p135
aS'http://www.gwern.net#cryptobitcoinfiction/Dying%20Outside'
p136
aS'http://www.gwern.net#psychologyModafinil'
p137
aS'http://www.gwern.net#psychology./docs/sr/2013-power'
p138
aS'http://www.gwern.net#cryptobitcoin./docs/sr/2013-power'
p139
aS'http://www.gwern.net#csHaskell%20Summer%20of%20Code'
p140
aS'http://www.gwern.net#csAn%20Abortion%20Dialogue'
p141
aS'http://www.gwern.net#csDeath%20Note%20Anonymity'
p142
aS'http://gwern.net/Mail%20delivery'
p143
aS'http://www.gwern.net#cryptobitcoinfiction/The%20Palace%20of%20Wonders'
p144
aS'http://www.gwern.net#psychologyICON%202012'
p145
aS'http://www.gwern.net#psychologyICON%202010'
p146
aS'http://www.gwern.net#psychologyICON%202011'
p147
aS'http://www.gwern.net#cryptobitcoinZeo'
p148
aS'http://www.gwern.net#cryptobitcoin./Statistical%20notes'
p149
aS'http://www.gwern.net#cryptobitcoin./docs/statistics/1994-falk'
p150
aS'http://www.gwern.net#cryptobitcoin2012%20election%20predictions'
p151
aS'http://www.gwern.net#cryptobitcoinLife%20contract'
p152
aS'http://www.gwern.net#cryptobitcoin./Resorter'
p153
aS'http://www.gwern.net#cryptobitcoinResilient%20Haskell%20Software'
p154
aS'http://www.gwern.net./About'
p155
aS'http://www.gwern.net#csMelatonin'
p156
aS'http://www.gwern.net#cs./docs/eva/2010-crc'
p157
aS'http://www.gwern.net./docs/2002-gibson'
p158
aS'http://www.gwern.net#csSelf-decrypting%20files'
p159
aS'http://www.gwern.netGirl%20Scouts%20and%20good%20governance'
p160
aS'http://www.gwern.net#cs2012%20election%20predictions'
p161
aS'http://www.gwern.net#cryptobitcoinThe%20Narrowing%20Circle'
p162
aS'http://www.gwern.net#fiction'
p163
aS'http://www.gwern.net#cs#statistics'
p164
aS'http://www.gwern.net#practical'
p165
aS'http://www.gwern.net#cryptobitcoin2014%20spirulina'
p166
aS'http://www.gwern.netAbout'
p167
aS'http://www.gwern.net#psychology#personal'
p168
aS'http://www.gwern.net#cryptobitcoinAgainst%20The%20Miletians'
p169
aS'http://www.gwern.net#psychology./docs/eva/2003-oshii-izubuchi'
p170
aS'http://www.gwern.net#cryptobitcoinDNB%20FAQ'
p171
aS'http://www.gwern.net#csAgainst%20The%20Miletians'
p172
aS'http://www.gwern.net#psychology./About#belief-tags'
p173
aS'http://www.gwern.net#cryptobitcoinWikipedia%20resume'
p174
aS'http://www.gwern.net#csLSD%20microdosing'
p175
aS'http://www.gwern.net./Timestamping'
p176
aS'http://www.gwern.net#psychologyWikipedia%20and%20YouTube'
p177
aS'http://www.gwern.net#csfiction/Dinosaur%20Comics'
p178
aS'http://www.gwern.net#csWikipedia%20and%20Knol'
p179
aS'http://www.gwern.netAria%27s%20past,%20present,%20and%20future'
p180
aS'http://www.gwern.netTerrorism%20is%20not%20Effective'
p181
aS'http://www.gwern.net./docs/1985-hofstadter'
p182
aS'http://www.gwern.net#csPrediction%20markets'
p183
aS'http://www.gwern.net#cryptobitcoinAria%27s%20past,%20present,%20and%20future'
p184
aS'http://www.gwern.netNootropics'
p185
aS'http://www.gwern.net#cs./Turing-complete'
p186
aS'http://www.gwern.net#psychology./docs/2002-gibson'
p187
aS'http://www.gwern.net#cryptobitcoin./Greenland'
p188
aS'http://www.gwern.net./fiction/Stories'
p189
aS'http://www.gwern.net#cryptobitcoinfiction/Hybrid%20Rainbow'
p190
aS'http://www.gwern.net#csFMP%20parody'
p191
aS'http://www.gwern.net#csEvolutionary%20Licenses'
p192
aS'http://www.gwern.net#psychologyBitcoin%20is%20Worse%20is%20Better'
p193
aS'http://www.gwern.net#cryptobitcoinDeath%20Note%20script'
p194
aS'http://www.gwern.net#cs./docs/eva/1996-animerica-conscience-otaking'
p195
aS'http://www.gwern.net#cs./docs/2007-wolfe'
p196
aS'http://www.gwern.net#psychology./docs/2010-sarrazin'
p197
aS'http://www.gwern.net./Black-market%20archives'
p198
aS'http://www.gwern.net#cssicp/Chapter%201.1'
p199
aS'http://www.gwern.net#cssicp/Chapter%201.2'
p200
aS'http://www.gwern.net#cssicp/Chapter%201.3'
p201
aS'http://www.gwern.net#csGirl%20Scouts%20and%20good%20governance'
p202
aS'http://www.gwern.net#psychologyDeath%20Note%20Ending'
p203
aS'http://www.gwern.net#cs2006%20Cornell%20TKD'
p204
aS'http://www.gwern.net#cs./Timestamping'
p205
aS'http://www.gwern.netMelatonin'
p206
aS'http://www.gwern.net#cryptobitcoin2005%20Europe%20trip'
p207
aS'http://www.gwern.net#cryptobitcoinBicycles%20and%20Rationality'
p208
aS'http://www.gwern.net#csSuzanne%20Delage'
p209
aS'http://www.gwern.net#psychology'
p210
aS'http://www.gwern.net#cs#cryptobitcoin'
p211
aS'http://www.gwern.net#csConscientiousness%20and%20online%20education'
p212
aS'http://www.gwern.net./docs/eva/2003-rahxephoncomplete-anno-izubuchi'
p213
aS'http://www.gwern.net#cs./docs/eva/2002-notenki-memoirs'
p214
aS'http://www.gwern.netLinks'
p215
aS'http://www.gwern.net#cryptobitcoinfiction/Brave%20poem'
p216
aS'http://www.gwern.net#cs#practical'
p217
aS'http://www.gwern.net#psychologyBicycles%20and%20Rationality'
p218
aS'http://www.gwern.net#psychology./docs/statistics/1994-falk'
p219
aS'http://www.gwern.net#cs#personal'
p220
aS'https://en.wikipedia.org/wiki/Bitcoin'
p221
aS'http://www.gwern.net#cryptobitcoin./docs/eva/1997-animeland-may-hideakianno-interview-english'
p222
aS'http://www.gwern.net#csfiction/Poems'
p223
aS'http://www.gwern.netSuzanne%20Delage'
p224
aS'http://www.gwern.net#cryptobitcoinICON%202011'
p225
aS'http://www.gwern.net#cryptobitcoinICON%202010'
p226
aS'http://www.gwern.net#cryptobitcoinkomm-susser-tod'
p227
aS'http://www.gwern.net#cryptobitcoinICON%202012'
p228
aS'http://www.gwern.net#psychology./Statistical%20notes'
p229
aS'http://www.gwern.net#cryptobitcoinNicotine'
p230
aS'http://www.gwern.net#psychology./About'
p231
aS'http://www.gwern.net#cryptobitcoinfiction/The%20Mulberry%20Tree'
p232
aS'https://www.patreon.com/gwern'
p233
aS'http://www.gwern.net#psychologyCulture%20is%20not%20about%20Esthetics'
p234
aS'http://www.gwern.nethaskell/Redirect-bot.hs'
p235
aS'http://www.gwern.net#csOn%20Stress'
p236
aS'http://www.gwern.net2005%20Europe%20trip'
p237
aS'http://www.gwern.net#csICON%202012'
p238
aS'http://www.gwern.netAnime%20criticism%20is%20not%20about%20quality'
p239
aS'http://www.gwern.net#cryptobitcoin#fiction'
p240
aS'http://www.gwern.net#psychologySilk%20Road'
p241
aS'http://www.gwern.net#anime-docs'
p242
aS'http://www.gwern.net#psychologyAgainst%20The%20Miletians'
p243
aS'http://www.gwern.net#cryptobitcoinCharity%20is%20not%20about%20helping'
p244
aS'http://www.gwern.net#csOntological%20pantheism'
p245
aS'http://www.gwern.net#cs#docs'
p246
aS'http://www.gwern.netDeath%20Note%20Ending'
p247
aS'http://www.gwern.netDrug%20heuristics'
p248
aS'http://www.gwern.net#psychology./docs/eva/2005-sawaragi'
p249
aS'http://www.gwern.net#cryptobitcoinOn%20Stress'
p250
aS'http://www.gwern.net#cryptobitcoinDeath%20Note%20Ending'
p251
aS'http://www.gwern.netTerrorism%20is%20not%20about%20Terror'
p252
aS'http://www.gwern.net#psychologyGoogle%20shutdowns'
p253
aS'http://www.gwern.net#cryptobitcoinSlowing%20Moore%27s%20Law'
p254
aS'http://www.gwern.net#psychology./docs/eva/2003-rahxephoncomplete-anno-izubuchi'
p255
aS'http://www.gwern.net#psychologyhaskell/Wikipedia%20Archive%20Bot'
p256
aS'http://www.gwern.net#csBlackmail'
p257
aS'https://docs.google.com/forms/d/17cNf0ohMHKeTwmUM_V_hDVkirjsf8HLMWsJco8gt2Eg/viewform'
p258
aS'http://www.gwern.net#cryptobitcoinLewis%20meditation'
p259
aS'http://www.gwern.net#csCharity%20is%20not%20about%20helping'
p260
aS'http://www.gwern.net#psychologyfiction/The%20Ones%20Who%20Walk%20Towards%20Acre'
p261
aS'http://www.gwern.net#cs./docs/eva/2003-oshii-izubuchi'
p262
aS'http://www.gwern.net./About#belief-tags'
p263
aS'http://www.gwern.net#psychology./Black-market%20archives'
p264
aS'http://www.gwern.netChoosing%20Software'
p265
aS'http://www.gwern.net#psychologyfiction/The%20Palace%20of%20Wonders'
p266
aS'http://www.gwern.net#psychology2014%20spirulina'
p267
aS'http://www.gwern.nethaskell/Run%20Length%20Encoding'
p268
aS'http://www.gwern.net#psychology./tags/newsletter'
p269
aS'http://www.gwern.net#csTerrorism%20is%20not%20Effective'
p270
aS'http://www.gwern.net#psychology./docs/eva/2002-notenki-memoirs'
p271
aS'http://www.gwern.netsicp/Introduction'
p272
aS'http://www.gwern.net#cshaskell/Redirect-bot.hs'
p273
aS'http://www.gwern.netfiction/Dinosaur%20Comics'
p274
aS'http://www.gwern.net#psychology./docs/1963-asimov-sword-of-achilles'
p275
aS'http://www.gwern.net#csotaku'
p276
aS'http://www.gwern.net#cryptobitcoinSimulation%20inferences'
p277
aS'http://www.gwern.net#csfiction/Menard'
p278
aS'http://www.gwern.net#statistics'
p279
aS'http://www.gwern.net#psychology#statistics'
p280
aS'http://www.gwern.net#philosophy'
p281
aS'http://www.gwern.netSilk%20Road'
p282
aS'http://www.gwern.net#politics'
p283
aS'http://www.gwern.net#csEthical%20sperm%20donation'
p284
aS'http://www.gwern.net#psychology./atom.xml'
p285
aS'http://www.gwern.netBitcoin%20is%20Worse%20is%20Better'
p286
aS'http://www.gwern.net#cryptobitcoinLinks'
p287
aS'http://www.gwern.net#psychologyThe%20Narrowing%20Circle'
p288
aS'http://www.gwern.net#csWooden%20pillows'
p289
aS'http://www.gwern.net#psychologySunk%20cost'
p290
aS'b'
p291
aS'http://www.gwern.net#psychologyTerrorism%20is%20not%20Effective'
p292
aS'http://www.gwern.net#cryptobitcoin./Changelog'
p293
aS'http://www.gwern.net#psychologyLife%20contract'
p294
aS'http://www.gwern.net#cryptobitcoinhaskell/Redirect-bot.hs'
p295
aS'http://www.gwern.net#cshaskell/Run%20Length%20Encoding'
p296
aS'http://www.gwern.net#csfiction/The%20Erl%20King'
p297
aS'http://www.gwern.net#csfiction/The%20Snowbanks%20of%20Time'
p298
aS'http://www.gwern.net#psychologyIodine'
p299
aS'http://www.gwern.net#cryptobitcoinJustifications'
p300
aS'http://www.gwern.netNotes'
p301
aS'http://www.gwern.net#psychologyotaku'
p302
aS'http://www.gwern.net#csOn%20Disrespect'
p303
aS'http://www.gwern.net#psychologyWikipedia%20resume'
p304
aS'http://www.gwern.net#cs#philosophy'
p305
aS'http://www.gwern.net#psychologyWikipedia%20and%20Other%20Wikis'
p306
aS'http://www.gwern.net#csNootropics'
p307
aS'http://www.gwern.net#cryptobitcoinConscientiousness%20and%20online%20education'
p308
aS'http://www.gwern.net#cshpmor#analysis'
p309
aS'http://www.gwern.netDeath%20Note%20Anonymity'
p310
aS'http://www.gwern.net#psychologyfiction/Dinosaur%20Comics'
p311
aS'http://www.gwern.net#psychology./docs/2007-wolfe'
p312
aS'http://www.gwern.netBicycles%20and%20Rationality'
p313
aS'http://www.gwern.netkomm-susser-tod'
p314
aS'http://www.gwern.net./Greenland'
p315
aS'http://www.gwern.net#psychology./docs/eva/2005-murakami'
p316
aS'http://www.gwern.net#psychologyfiction/A%20Human%20Story'
p317
aS'http://www.gwern.net#psychologyfiction/The%20Buddha%27s%20Wheel'
p318
aS'http://www.gwern.netWooden%20pillows'
p319
aS'http://www.gwern.net#cs./Black-market%20survival'
p320
aS'http://www.gwern.net#cryptobitcoinGirl%20Scouts%20and%20good%20governance'
p321
aS'http://www.gwern.net#psychologySimulation%20inferences'
p322
aS'http://www.gwern.net#docs'
p323
aS'http://www.gwern.net#cs./Black-market%20arrests'
p324
aS'http://www.gwern.netfiction/The%20Palace%20of%20Wonders'
p325
aS'http://www.gwern.net./docs/statistics/1994-falk'
p326
aS'http://www.gwern.net#cryptobitcoin./docs/eva/2011-house'
p327
aS'http://www.gwern.net#personal'
p328
aS'http://www.gwern.net#psychology./Timestamping'
p329
aS'http://www.gwern.net#psychologyZeo'
p330
aS'http://www.gwern.netsicp/Chapter%201.1'
p331
aS'http://www.gwern.net#cs./atom.xml'
p332
aS'http://www.gwern.netsicp/Chapter%201.3'
p333
aS'http://www.gwern.net#cryptobitcoin2011%20San%20Francisco'
p334
aS'http://www.gwern.netplastination'
p335
aS'http://www.gwern.net#cryptobitcoinHaskell%20Summer%20of%20Code'
p336
aS'http://www.gwern.net./docs/eva/2005-murakami'
p337
aS'http://www.gwern.netThe%20Existential%20Risk%20of%20Mathematical%20Error'
p338
aS'http://www.gwern.net#cs./docs/eva/2003-rahxephoncomplete-anno-izubuchi'
p339
aS'http://www.gwern.net#csIsomorphisms'
p340
aS'http://www.gwern.net#psychologyZen%20and%20the%20Art%20of%20Bicycle%20Maintenance'
p341
aS'http://www.gwern.netLSD%20microdosing'
p342
aS'http://www.gwern.net#csConsole%20Insurance'
p343
aS'http://www.gwern.netfiction/The%20Buddha%27s%20Wheel'
p344
aS'http://www.gwern.net#cs./docs/eva/2005-murakami'
p345
aS'http://www.gwern.net#csMelon'
p346
aS'https://gwern.us3.list-manage.com/subscribe?u=ed1f6b2799208b40f5f18be8f&id=91b4d51355'
p347
aS'http://www.gwern.net./docs/1955-nash'
p348
aS'http://www.gwern.net#psychologyEthical%20sperm%20donation'
p349
aS'http://www.gwern.net#cs2011%20San%20Francisco'
p350
aS'http://www.gwern.net#psychologyDeath%20Note%20Anonymity'
p351
aS'http://www.gwern.netLife%20contract'
p352
aS'http://www.gwern.net#psychology./Resorter'
p353
aS'http://www.gwern.net#csZeo'
p354
aS'http://www.gwern.net#cs#anime-docs'
p355
aS'http://www.gwern.net#psychologyplastination'
p356
aS'http://www.gwern.net#cryptobitcoinGoogle%20Alerts'
p357
aS'http://www.gwern.net./tags/newsletter'
p358
aS'http://www.gwern.net#psychology./index'
p359
aS'http://www.gwern.net#csCausality'
p360
aS'http://www.gwern.net#csThe%20Existential%20Risk%20of%20Mathematical%20Error'
p361
aS'http://www.gwern.netfiction/The%20Erl%20King'
p362
aS'http://www.gwern.net#cryptobitcoinOn%20Disrespect'
p363
aS'http://www.gwern.net#cs#politics'
p364
aS'http://www.gwern.net#csThe%20Melancholy%20of%20Subculture%20Society'
p365
aS'http://www.gwern.net#cs./docs/2010-sarrazin'
p366
aS'http://www.gwern.netCharity%20is%20not%20about%20helping'
p367
aS'http://www.gwern.net#psychologyhpmor#analysis'
p368
aS'http://www.gwern.net#psychology./docs/eva/2011-house'
p369
aS'http://www.gwern.net#cryptobitcoinBlackmail'
p370
aS'http://www.gwern.net#psychologyThe%203%20Grenades'
p371
aS'http://www.gwern.net#csBicycles%20and%20Rationality'
p372
aS'http://www.gwern.netfiction/Menard'
p373
aS'http://www.gwern.net#csJustifications'
p374
aS'http://www.gwern.net#psychologysicp/Chapter%201.1'
p375
aS'http://www.gwern.net#psychologysicp/Chapter%201.3'
p376
aS'http://www.gwern.net#psychologysicp/Chapter%201.2'
p377
aS'http://www.gwern.net#psychologyHaskell%20Summer%20of%20Code'
p378
aS'http://www.gwern.net#psychologyAn%20Abortion%20Dialogue'
p379
aS'http://www.gwern.net./docs/eva/2003-oshii-izubuchi'
p380
aS'http://www.gwern.netfiction/A%20Human%20Story'
p381
aS'http://www.gwern.net./docs/1963-asimov-sword-of-achilles'
p382
aS'http://www.gwern.net#cryptobitcoinGoogle%20shutdowns'
p383
aS'http://www.gwern.net#psychologyThe%20Existential%20Risk%20of%20Mathematical%20Error'
p384
aS'http://www.gwern.net#cryptobitcoinIodine'
p385
aS'http://www.gwern.net#psychology./docs/2002-radiance'
p386
aS'http://www.gwern.net#cryptobitcoinDrug%20heuristics'
p387
aS'http://www.gwern.net#cryptobitcoin'
p388
aS'http://www.gwern.net#cryptobitcoin./docs/eva/2002-notenki-memoirs'
p389
aS'http://www.gwern.net#cryptobitcoinTerrorism%20is%20not%20Effective'
p390
aS'http://www.gwern.net#cryptobitcoinfiction/Missing%20Cities'
p391
aS'http://www.gwern.net#psychologyCausality'
p392
aS'http://www.gwern.net#cryptobitcoin#wikipedia'
p393
aS'http://www.gwern.net#cryptobitcoin./docs/2007-wolfe'
p394
aS'http://www.gwern.net#psychology./docs/eva/1996-animerica-conscience-otaking'
p395
aS'http://www.gwern.net#cryptobitcoinAn%20Abortion%20Dialogue'
p396
aS'http://www.gwern.net#psychology2012%20election%20predictions'
p397
aS'http://www.gwern.net#cs./docs/2002-radiance'
p398
aS'http://www.gwern.net#wikipedia'
p399
aS'http://www.gwern.netfiction/Safecracker'
p400
aS'http://www.gwern.net#cryptobitcoin./fiction/Genshiken'
p401
aS'http://www.gwern.net#psychology#docs'
p402
aS'http://www.gwern.net#psychology#cryptobitcoin'
p403
aS'http://www.gwern.net#psychology#practical'
p404
aS'http://www.gwern.net#cryptobitcoin./tags/newsletter'
p405
aS'http://www.gwern.net./index'
p406
aS'http://www.gwern.net#cryptobitcoinhaskell/Run%20Length%20Encoding'
p407
aS'http://www.gwern.net#cryptobitcoinImmoral%20Books'
p408
aS'http://www.gwern.netMelon'
p409
aS'http://www.gwern.net#psychologyIsomorphisms'
p410
aS'http://www.gwern.net#psychologySpaced%20repetition'
p411
aS'http://www.gwern.net#psychology#fiction'
p412
aS'http://www.gwern.net#cryptobitcoinfiction/Dinosaur%20Comics'
p413
aS'http://www.gwern.netICON%202011'
p414
aS'http://www.gwern.netICON%202010'
p415
aS'http://www.gwern.netICON%202012'
p416
aS'http://www.gwern.netZeo'
p417
aS'http://www.gwern.net#csfiction/The%20Palace%20of%20Wonders'
p418
aS'http://www.gwern.net2006%20Cornell%20TKD'
p419
aS'http://www.gwern.net#psychologyDeath%20Note%20script'
p420
aS'http://www.gwern.net#cryptobitcoinCulture%20is%20not%20about%20Esthetics'
p421
aS'http://www.gwern.net2011%20San%20Francisco'
p422
aS'http://www.gwern.net#cryptobitcoin./About'
p423
aS'http://www.gwern.net#cryptobitcoinhaskell/Wikipedia%20Archive%20Bot'
p424
aS'http://www.gwern.net#psychologyfiction/The%20Snowbanks%20of%20Time'
p425
aS'http://www.gwern.netThe%20Melancholy%20of%20Kyon'
p426
aS'http://www.gwern.net#csDNB%20meta-analysis'
p427
aS'http://www.gwern.net#cryptobitcoinThe%20Melancholy%20of%20Kyon'
p428
aS'http://www.gwern.net#psychologyChoosing%20Software'
p429
aS'http://www.gwern.net#psychologyfiction/Missing%20Cities'
p430
aS'http://www.gwern.net#cryptobitcoinSpaced%20repetition'
p431
aS'http://www.gwern.net#cryptobitcoinColder%20Wars'
p432
aS'http://www.gwern.net#cryptobitcoinConsole%20Insurance'
p433
aS'http://www.gwern.net#cryptobitcoinTerrorism%20is%20not%20about%20Terror'
p434
aS'http://www.gwern.net./Links'
p435
aS'http://www.gwern.net#cryptobitcoinfiction/Men%20of%20Iron'
p436
aS'http://www.gwern.net#psychologyFMP%20parody'
p437
aS'http://www.gwern.net#cryptobitcoinotaku'
p438
aS'http://www.gwern.net#cryptobitcoinplastination'
p439
aS'http://www.gwern.net./docs/2010-sarrazin'
p440
aS'http://www.gwern.net#cs./Links'
p441
aS'http://www.gwern.net#cryptobitcoin./docs/eva/1996-animerica-conscience-otaking'
p442
aS'http://www.gwern.net#cryptobitcoinfiction/Cloud%20Nine'
p443
aS'www.gwern.net'
p444
aS'http://www.gwern.net#csGoogle%20Alerts'
p445
aS'http://www.gwern.net#cryptobitcoin#psychology'
p446
aS'http://www.gwern.net#cryptobitcoinMelon'
p447
aS'http://www.gwern.net#cryptobitcoinMelatonin'
p448
aS'http://www.gwern.net#psychologyLSD%20microdosing'
p449
aS'http://www.gwern.net#cryptobitcoinTea'
p450
aS'http://www.gwern.net#csfiction/Missing%20Cities'
p451
aS'http://www.gwern.net#cs#qs'
p452
aS'http://www.gwern.net#cs./docs/eva/1997-animeland-may-hideakianno-interview-english'
p453
aS'http://www.gwern.net#csfiction/Safecracker'
p454
aS'http://www.gwern.net#psychologyfiction/Men%20of%20Iron'
p455
aS'http://www.gwern.net#cryptobitcoin./fiction/Stories'
p456
aS'http://www.gwern.netModafinil'
p457
aS'http://www.gwern.net#psychologyJustifications'
p458
aS'http://www.gwern.net#csfiction/The%20Ones%20Who%20Walk%20Towards%20Acre'
p459
aS'http://www.gwern.net#psychologyfiction/How%20the%20Panther%20got%20Black'
p460
aS'http://www.gwern.net#psychology./fiction/Genshiken'
p461
aS'http://www.gwern.netSpaced%20repetition'
p462
aS'http://www.gwern.netAn%20Abortion%20Dialogue'
p463
aS'http://www.gwern.net#cs./docs/statistics/1994-falk'
p464
aS'http://www.gwern.net#cryptobitcoin#statistics'
p465
aS'http://www.gwern.net#csImmoral%20Books'
p466
aS'http://www.gwern.netThe%20Melancholy%20of%20Subculture%20Society'
p467
aS'http://www.gwern.net#cryptobitcoinEvolutionary%20Licenses'
p468
aS'http://www.gwern.net#cryptobitcoin#cryptobitcoin'
p469
aS'http://www.gwern.net#cs#anime'
p470
aS'http://www.gwern.net#cs#cs'
p471
aS'http://www.gwern.net#cryptobitcoin#qs'
p472
aS'http://www.gwern.net#psychologyOntological%20pantheism'
p473
aS'http://www.gwern.netOn%20Stress'
p474
aS'http://www.gwern.net#psychologyhaskell/Run%20Length%20Encoding'
p475
aS'http://www.gwern.net#csDeath%20Note%20Ending'
p476
aS'http://www.gwern.net#psychology./Turing-complete'
p477
aS'http://www.gwern.net#cryptobitcoinIn%20Defense%20Of%20Inclusionism'
p478
aS'http://www.gwern.net#cryptobitcoin./docs/eva/1996-newtype-anno-interview'
p479
aS'http://www.gwern.net#cs./About#belief-tags'
p480
aS'http://www.gwern.net#cryptobitcoinYawgoog%20injustice'
p481
aS'http://www.gwern.net#psychologyhaskell/Wikipedia%20RSS%20Archive%20Bot'
p482
aS'http://www.gwern.netColder%20Wars'
p483
aS'http://www.gwern.net#cryptobitcoinfiction/The%20Last%20Muezzin'
p484
aS'http://www.gwern.net#cryptobitcoin./docs/eva/2005-sawaragi'
p485
aS'http://www.gwern.net#cryptobitcoinhaskell/Archiving%20GitHub'
p486
aS'http://www.gwern.net#psychologySlowing%20Moore%27s%20Law'
p487
aS'http://www.gwern.netfiction/The%20Snowbanks%20of%20Time'
p488
aS'http://www.gwern.net#csArchiving%20URLs'
p489
aS'http://www.gwern.net#cshaskell/Wikipedia%20RSS%20Archive%20Bot'
p490
aS'http://www.gwern.net#cryptobitcoin./docs/2002-gibson'
p491
aS'http://www.gwern.net#cryptobitcoin./Black-market%20arrests'
p492
aS'http://www.gwern.net#psychologyGoogle%20Alerts'
p493
aS'a'
p494
aS'http://www.gwern.net#cs./docs/2002-gibson'
p495
aS'http://www.gwern.net#cryptobitcoinSuzanne%20Delage'
p496
aS'http://www.gwern.net#psychologykomm-susser-tod'
p497
aS'http://www.gwern.netFMP%20parody'
p498
aS'http://www.gwern.net#psychology./docs/1985-hofstadter'
p499
aS'http://www.gwern.net#psychology./Links'
p500
aS'http://www.gwern.net#cs./docs/1985-hofstadter'
p501
aS'http://www.gwern.net#psychology./Changelog'
p502
aS'http://www.gwern.netWikipedia%20and%20YouTube'
p503
aS'http://www.gwern.net#cryptobitcoinDNB%20meta-analysis'
p504
aS'http://www.gwern.net#csTerrorism%20is%20not%20about%20Terror'
p505
aS'http://www.gwern.net#cryptobitcoin./Black-market%20survival'
p506
aS'http://www.gwern.net./docs/eva/1996-newtype-anno-interview'
p507
aS'http://www.gwern.net#cryptobitcoinWikipedia%20and%20Knol'
p508
aS'http://www.gwern.net#cryptobitcoin./Timestamping'
p509
aS'http://www.gwern.net#csIn%20Defense%20Of%20Inclusionism'
p510
aS'http://www.gwern.net#psychology./Greenland'
p511
aS'http://www.gwern.net#csColder%20Wars'
p512
aS'http://www.gwern.netWikipedia%20resume'
p513
aS'http://www.gwern.net#psychology#qs'
p514
aS'http://www.gwern.netsicp/Chapter%201.2'
p515
aS'http://www.gwern.net#csLinks'
p516
aS'http://www.gwern.net#cryptobitcoin./index'
p517
aS'http://www.gwern.net#psychologyLewis%20meditation'
p518
aS'http://www.gwern.net#psychologyfiction/The%20Erl%20King'
p519
aS'http://www.gwern.net#cryptobitcoin#cs'
p520
aS'http://www.gwern.netDNB%20FAQ'
p521
aS'http://www.gwern.net#csWikipedia%20resume'
p522
aS'http://www.gwern.net#cryptobitcoinfiction/Safecracker'
p523
aS'http://www.gwern.net#cryptobitcoin#personal'
p524
aS'http://www.gwern.net#psychology./docs/eva/1996-newtype-anno-interview'
p525
aS'http://www.gwern.net#csZen%20and%20the%20Art%20of%20Bicycle%20Maintenance'
p526
aS'http://www.gwern.net#psychology#wikipedia'
p527
aS'http://www.gwern.net#csfiction/A%20Human%20Story'
p528
aS'http://www.gwern.net#cryptobitcoin./docs/1955-nash'
p529
aS'http://www.gwern.net#cryptobitcoinModafinil'
p530
aS'http://www.gwern.net#csLife%20contract'
p531
aS'http://www.gwern.net#cryptobitcoinLSD%20microdosing'
p532
aS'http://www.gwern.net#psychologyThe%20Melancholy%20of%20Kyon'
p533
aS'http://www.gwern.net#cs'
p534
aS'd'
p535
aS'http://www.gwern.net#cryptobitcoinWooden%20pillows'
p536
aS'http://www.gwern.net#cryptobitcoin./docs/eva/2003-rahxephoncomplete-anno-izubuchi'
p537
aS'http://www.gwern.netfiction/Poems'
p538
aS'http://www.gwern.net#cryptobitcoinfiction/How%20the%20Panther%20got%20Black'
p539
aS'http://www.gwern.net./atom.xml'
p540
aS'http://www.gwern.net#psychologyIn%20Defense%20Of%20Inclusionism'
p541
aS'http://www.gwern.net#psychology#psychology'
p542
aS'http://www.gwern.net#cryptobitcoin./docs/1963-asimov-sword-of-achilles'
p543
aS'http://www.gwern.net#csWikipedia%20and%20Dark%20Side%20Editing'
p544
aS'http://www.gwern.nethaskell/Wikipedia%20Archive%20Bot'
p545
aS'http://www.gwern.net#csNotes'
p546
aS'http://www.gwern.netSimulation%20inferences'
p547
aS'http://www.gwern.net./Changelog'
p548
aS'http://www.gwern.net#cs./docs/1963-asimov-sword-of-achilles'
p549
aS'http://www.gwern.net#cryptobitcoinWikipedia%20and%20Dark%20Side%20Editing'
p550
aS'http://www.gwern.net#cryptobitcoinsicp/Introduction'
p551
aS'http://www.gwern.net#cs#psychology'
p552
aS'http://www.gwern.net#cryptobitcoin./docs/eva/2010-crc'
p553
aS'http://www.gwern.net#psychology#anime'
p554
aS'http://www.gwern.net#cshaskell/Archiving%20GitHub'
p555
aS'http://www.gwern.net#cs./docs/eva/1996-newtype-anno-interview'
p556
aS'http://www.gwern.net#cryptobitcoin./docs/eva/2004-okada'
p557
aS'http://www.gwern.net#csYawgoog%20injustice'
p558
aS'http://www.gwern.net#psychologyfiction/Menard'
p559
aS'http://www.gwern.net#csDNB%20FAQ'
p560
aS'http://www.gwern.net#cryptobitcoinBook%20reviews'
p561
aS'http://www.gwern.netCopyright'
p562
aS'http://www.gwern.net#cryptobitcoinsicp/Chapter%201.1'
p563
aS'http://www.gwern.net#cryptobitcoinsicp/Chapter%201.2'
p564
aS'http://www.gwern.net#cryptobitcoinsicp/Chapter%201.3'
p565
aS'http://www.gwern.netThe%203%20Grenades'
p566
aS'http://www.gwern.net#psychologySelf-decrypting%20files'
p567
aS'http://www.gwern.net#psychologyLinks'
p568
aS'http://www.gwern.net#cryptobitcoin#docs'
p569
aS'http://www.gwern.net#cryptobitcoin./atom.xml'
p570
aS'http://www.gwern.net#cs./Black-market%20archives'
p571
aS'http://www.gwern.net#psychology#philosophy'
p572
aS'http://www.gwern.net#cryptobitcoinEthical%20sperm%20donation'
p573
aS'http://www.gwern.nethaskell/Archiving%20GitHub'
p574
aS'http://www.gwern.net#psychologyfiction/The%20Last%20Muezzin'
p575
aS'http://www.gwern.net#psychology./Black-market%20arrests'
p576
aS'http://www.gwern.net#cryptobitcoin./docs/2010-sarrazin'
p577
aS'http://www.gwern.net#psychologyfiction/Cloud%20Nine'
p578
aS'http://www.gwern.net#cryptobitcoin#anime-docs'
p579
aS'http://www.gwern.netWikipedia%20and%20Other%20Wikis'
p580
aS'http://www.gwern.net#psychologyPrediction%20markets'
p581
aS'http://www.gwern.net#cryptobitcoin./docs/2002-radiance'
p582
aS'http://www.gwern.netConscientiousness%20and%20online%20education'
p583
aS'http://www.gwern.net#cryptobitcoinSilk%20Road'
p584
aS'http://www.gwern.net#cryptobitcoinThe%20Existential%20Risk%20of%20Mathematical%20Error'
p585
aS'http://www.gwern.net#qs'
p586
aS'http://www.gwern.net#psychologyfiction/Dying%20Outside'
p587
aS'http://www.gwern.net#psychologyTea'
p588
aS'http://www.gwern.netBlackmail'
p589
aS'http://www.gwern.net#cryptobitcoinSunk%20cost'
p590
aS'http://www.gwern.net#csfiction/The%20Last%20Muezzin'
p591
aS'http://www.gwern.net#psychology#anime-docs'
p592
aS'http://www.gwern.net#cs./fiction/Genshiken'
p593
aS'http://www.gwern.netfiction/Cloud%20Nine'
p594
aS'http://www.gwern.net#cryptobitcoinDeath%20Note%20Anonymity'
p595
aS'http://www.gwern.net#cryptobitcoinSelf-decrypting%20files'
p596
aS'http://www.gwern.netSlowing%20Moore%27s%20Law'
p597
aS'http://www.gwern.net#psychologyWikipedia%20and%20Dark%20Side%20Editing'
p598
aS'http://www.gwern.net./Black-market%20arrests'
p599
aS'http://www.gwern.netArchiving%20URLs'
p600
aS'http://www.gwern.net#psychology2005%20Europe%20trip'
p601
aS'http://www.gwern.netfiction/Men%20of%20Iron'
p602
aS'http://www.gwern.net#csfiction/How%20the%20Panther%20got%20Black'
p603
aS'http://www.gwern.net./fiction/Genshiken'
p604
aS'http://www.gwern.net#csICON%202011'
p605
aS'http://www.gwern.net#csICON%202010'
p606
aS'http://www.gwern.net#csLewis%20meditation'
p607
aS'http://www.gwern.netGoogle%20Alerts'
p608
aS'http://www.gwern.net#psychologyColder%20Wars'
p609
aS'http://www.gwern.net#cryptobitcoin./Links'
p610
aS'http://www.gwern.netfiction/The%20Last%20Muezzin'
p611
aS'http://www.gwern.net#csAria%27s%20past,%20present,%20and%20future'
p612
aS'http://www.gwern.net#psychologyNicotine'
p613
aS'http://www.gwern.net#csDeath%20Note%20script'
p614
aS'http://www.gwern.net#csAbout'
p615
aS'http://www.gwern.netNicotine'
p616
aS'http://www.gwern.net#cs./docs/1955-nash'
p617
aS'http://www.gwern.net#cryptobitcoinThe%20Melancholy%20of%20Subculture%20Society'
p618
aS'http://www.gwern.net#psychologyhaskell/Redirect-bot.hs'
p619
aS'http://www.gwern.net#psychology./fiction/Stories'
p620
aS'http://www.gwern.netIodine'
p621
aS'http://www.gwern.net#psychologyAbout'
p622
aS'http://www.gwern.net#psychologyAnime%20criticism%20is%20not%20about%20quality'
p623
aS'http://www.gwern.netfiction/Dying%20Outside'
p624
aS'http://www.gwern.net#csBook%20reviews'
p625
aS'http://www.gwern.net#psychology2006%20Cornell%20TKD'
p626
aS'http://www.gwern.net#cryptobitcoinfiction/The%20Buddha%27s%20Wheel'
p627
aS'http://www.gwern.net#psychologyConsole%20Insurance'
p628
aS'http://www.gwern.net#psychologyCopyright'
p629
aS'http://www.gwern.net#csBitcoin%20is%20Worse%20is%20Better'
p630
aS'http://www.gwern.netTea'
p631
aS'http://www.gwern.netOntological%20pantheism'
p632
aS'http://www.gwern.net#cryptobitcoin#anime'
p633
aS'http://www.gwern.net#csSilk%20Road'
p634
aS'http://www.gwern.net#cryptobitcoinWikipedia%20and%20Other%20Wikis'
p635
aS'http://www.gwern.net#psychologyhaskell/Archiving%20GitHub'
p636
aS'http://www.gwern.net#cryptobitcoinfiction/The%20Snowbanks%20of%20Time'
p637
aS'http://www.gwern.netSelf-decrypting%20files'
p638
aS'http://www.gwern.net#psychologyArchiving%20URLs'
p639
aS'http://www.gwern.net#psychologyAria%27s%20past,%20present,%20and%20future'
p640
aS'http://www.gwern.net#cryptobitcoinfiction/The%20Ones%20Who%20Walk%20Towards%20Acre'
p641
aS'http://www.gwern.net#cs./fiction/Stories'
p642
aS'http://www.gwern.net#csSpaced%20repetition'
p643
aS'http://www.gwern.net#psychology./docs/eva/1997-animeland-may-hideakianno-interview-english'
p644
aS'http://www.gwern.net#cryptobitcoinBitcoin%20is%20Worse%20is%20Better'
p645
aS'http://www.gwern.net#cryptobitcoinfiction/The%20Erl%20King'
p646
aS'http://www.gwern.net#psychologyfiction/Safecracker'
p647
aS'http://www.gwern.net./docs/eva/2010-crc'
p648
aS'http://www.gwern.net#csfiction/Brave%20poem'
p649
aS'http://www.gwern.net#cs./docs/eva/2005-sawaragi'
p650
aS'http://www.gwern.net#cs2005%20Europe%20trip'
p651
aS'http://www.gwern.netLunar%20sleep'
p652
aS'http://www.gwern.net#csfiction/Hybrid%20Rainbow'
p653
aS'http://www.gwern.netGoogle%20shutdowns'
p654
aS'http://www.gwern.net#psychologyLunar%20sleep'
p655
aS'http://www.gwern.net#csSunk%20cost'
p656
aS'http://www.gwern.netEthical%20sperm%20donation'
p657
aS'http://www.gwern.net./docs/2002-radiance'
p658
aS'https://plus.google.com/103530621949492999968/posts'
p659
aS'http://www.gwern.net#cryptobitcoinfiction/Poems'
p660
aS'http://www.gwern.net#csSimulation%20inferences'
p661
aS'http://www.gwern.net#cs./docs/sr/2013-power'
p662
aS'http://www.gwern.net#csfiction/The%20Buddha%27s%20Wheel'
p663
aS'http://www.gwern.net2012%20election%20predictions'
p664
aS'http://www.gwern.netBook%20reviews'
p665
aS'http://www.gwern.nethpmor#analysis'
p666
aS'http://www.gwern.net./docs/eva/2011-house'
p667
aS'http://www.gwern.net./Black-market%20survival'
p668
aS'http://www.gwern.net#psychologyYawgoog%20injustice'
p669
aS'http://www.gwern.net#csDrug%20heuristics'
p670
aS'http://www.gwern.net#psychologyCharity%20is%20not%20about%20helping'
p671
aS'http://www.gwern.net#csTea'
p672
aS'http://www.gwern.net#cryptobitcoinNootropics'
p673
aS'http://www.gwern.net#psychology2011%20San%20Francisco'
p674
aS'http://www.gwern.net./Turing-complete'
p675
aS'http://www.gwern.net#psychologyImmoral%20Books'
p676
aS'http://www.gwern.netfiction/Missing%20Cities'
p677
aS'http://www.gwern.net#csWikipedia%20and%20Other%20Wikis'
p678
aS'http://www.gwern.net#csCopyright'
p679
aS'http://www.gwern.net#cs./index'
p680
atp681
Rp682
.