c__builtin__
set
p0
((lp1
S'http://www.lesswrong.com/r/discussion/new//r/discussion/lw/naz/should_we_admit_it_when_a_persongroup_is_better/'
p2
aS'http://lesswrong.com/r/discussion/new/.rss'
p3
aS'http://www.lesswrong.com/r/discussion/new//r/discussion/lw/n9b/upcoming_lw_changes/'
p4
aS'http://www.lesswrong.com/recentposts/lw/na0/meetup_quantum_homeschooling/'
p5
aS'http://lesswrong.com/user/Elo/'
p6
aS'http://lesswrong.com/user/FrankAdamek'
p7
aS'http://www.lesswrong.com/comments//lw/g7y/morality_is_awesome/8c7z?context=1#8c7z'
p8
aS'http://www.lesswrong.com/recentposts/lw/mvi/meetup_melbourne_social_october/'
p9
aS'http://wiki.lesswrong.com/wiki/Meetup#Washington.2C_DC'
p10
aS'http://www.lesswrong.com/comments//r/lesswrong/lw/g7y/morality_is_awesome/'
p11
aS'http://www.lesswrong.com/recentposts/lw/n6p/meetup_tel_aviv_nick_lanes_vital_question/'
p12
aS'http://www.lesswrong.com/recentposts/lw/n1h/meetup_sydney_solstice/'
p13
aS'http://www.lesswrong.com/recentposts/lw/mxs/rationality_quotes_thread_november_2015/'
p14
aS'http://www.lesswrong.com/r/discussion/new//meetups/18x'
p15
aS'http://lesswrong.com/lw/hw/scope_insensitivity/'
p16
aS'http://lesswrong.com/lw/ji/conjunction_fallacy/f64'
p17
aS'https://archive.org/details/nationaldefensem29unit'
p18
aS'http://lesswrong.com/lw/ji/conjunction_fallacy/f66'
p19
aS'http://lesswrong.com/lw/ji/conjunction_fallacy/f67'
p20
aS'http://lesswrong.com/lw/ji/conjunction_fallacy/f68'
p21
aS'http://lesswrong.com/lw/ji/conjunction_fallacy/f69'
p22
aS'http://lesswrong.com/promoted/'
p23
aS'http://www.lesswrong.com/recentposts/lw/msl/future_of_life_institute_is_hiring/'
p24
aS'http://www.lesswrong.com/recentposts/lw/n26/meetup_san_antonio_meetup_goal_factoring/'
p25
aS'http://motherboard.vice.com/read/a-rabbit-brain-has-been-cryonically-preserved-and-recovered-brain-preservation-prize'
p26
aS'http://www.lesswrong.com/recentposts/lw/mz1/meetup_washington_dc_why_ad_hominem_works/'
p27
aS'http://www.lesswrong.com'
p28
aS'http://www.lesswrong.com/r/discussion/new//r/discussion/lw/n9q/conveying_rational_thinking_about_longterm_goals/'
p29
aS'http://www.overcomingbias.com/2016/02/a-bet-id-have-lost.html'
p30
aS'https://en.wikipedia.org/wiki/National_Institute_for_Health_and_Care_Excellence#Quality-adjusted_life_years'
p31
aS'http://lesswrong.com/user/peter_hurford'
p32
aS'http://lesswrong.com/lw/n8u/a_medical_mystery_thyroid_hormones_chronic/d4dz'
p33
aS'http://lesswrong.com/user/ScottL'
p34
aS'http://lesswrong.com/lw/n8u/a_medical_mystery_thyroid_hormones_chronic/d4dy'
p35
aS'http://www.lesswrong.com/r/discussion/new//r/discussion/lw/n59/the_number_choosing_game_against_the_existence_of/#comments'
p36
aS'http://www.lesswrong.com/r/discussion/new//r/discussion/lw/n8s/moderator_action_the_lion_and_the_lion2_are_banned/#comments'
p37
aS'http://www.lesswrong.com/r/discussion/new//r/discussion/lw/n9b/upcoming_lw_changes/#comments'
p38
aS'http://lesswrong.com/user/Vaniver/'
p39
aS'http://www.yudkowsky.net/rational/technical/'
p40
aS'http://lesswrong.com/lw/n8u/a_medical_mystery_thyroid_hormones_chronic/d4du'
p41
aS'http://www.lesswrong.com/r/discussion/new//lw/ro/2place_and_1place_words/'
p42
aS'http://www.lesswrong.com/recentposts/lw/n5u/meetup_san_francisco_meetup_projects/'
p43
aS'http://www.lesswrong.com/r/discussion/new//r/discussion/lw/nan/on_why_global_poverty_and_arguments_from/'
p44
aS'https://en.wikipedia.org/wiki/Rational_agent'
p45
aS'http://www.lesswrong.com/recentposts/lw/nai/meetup_sydney_rationality_dojo_march/'
p46
aS'http://www.lesswrong.com/recentposts/lw/mnf/meetup_meetup_san_antonio_meetup/'
p47
aS'http://www.lesswrong.com/recentposts/lw/mxp/meetup_less_wrong_nh_meetup/'
p48
aS'http://www.lesswrong.com/recentposts/lw/n0r/meetup_san_francisco_meetup_group_debugging/'
p49
aS'http://lesswrong.com/user/anon895/'
p50
aS'http://www.lesswrong.com/recentposts/lw/n2w/meetup_san_antonio_meetup_seeking_strategic/'
p51
aS'http://www.lesswrong.com/recentposts/lw/n7b/celebrating_all_who_are_in_effective_altruism/'
p52
aS'http://lesswrong.com/lw/ji/conjunction_fallacy/f6b'
p53
aS'http://lesswrong.com/lw/ji/conjunction_fallacy/f6c'
p54
aS'http://lesswrong.com/lw/ji/conjunction_fallacy/f6d'
p55
aS'http://lesswrong.com/lw/ji/conjunction_fallacy/f6e'
p56
aS'http://lesswrong.com/lw/ji/conjunction_fallacy/f6f'
p57
aS"http://www.lesswrong.com/comments/javascript:hidecover('langcover','langpopup')"
p58
aS'http://lesswrong.com/lw/ji/conjunction_fallacy/f6h'
p59
aS'http://lesswrong.com/lw/ji/conjunction_fallacy/f6i'
p60
aS'http://lesswrong.com/lw/ji/conjunction_fallacy/f6j'
p61
aS'http://lesswrong.com/lw/ji/conjunction_fallacy/f6k'
p62
aS'http://lesswrong.com/lw/ji/conjunction_fallacy/f6l'
p63
aS'http://lesswrong.com/lw/ji/conjunction_fallacy/f6m'
p64
aS'http://lesswrong.com/lw/ji/conjunction_fallacy/f6n'
p65
aS'http://lesswrong.com/lw/ji/conjunction_fallacy/f6o'
p66
aS'http://www.lesswrong.com/recentposts/lw/myx/meetup_scrum_a_philosophy_of_life/'
p67
aS'http://www.lesswrong.com/r/discussion/new//r/discussion/lw/n9v/lesswrong_survey_invitation_for_suggestions/#comments'
p68
aS'http://lesswrong.com/user/Academian'
p69
aS'http://www.lesswrong.com/r/discussion/new//lw/n0l/lesswrong_20/'
p70
aS'http://lesswrong.com/user/Gram_Stone/'
p71
aS'http://www.lesswrong.com/recentposts/lw/n42/meetup_rationality_meetup_vienna/'
p72
aS'http://lesswrong.com/lw/ji/conjunction_fallacy/cku0'
p73
aS'http://www.lesswrong.com/recentposts/lw/n2c/meetup_fallacymania_game_in_kocherga_club/'
p74
aS'https://en.wikipedia.org/wiki/World_Happiness_Report#2013_ranking_.282010-12_surveys.29'
p75
aS'http://lesswrong.com/lw/ji/conjunction_fallacy/'
p76
aS'http://lesswrong.com/about'
p77
aS'http://www.lesswrong.com/recentposts/lw/n01/take_the_ea_survey_help_the_ea_movement_grow_and/'
p78
aS'http://www.lesswrong.com/recentposts/lw/n57/meetup_washington_dc_fun_games/'
p79
aS'http://www.lesswrong.com/recentposts/lw/mu9/deliberate_grad_school/'
p80
aS'http://www.lesswrong.com/r/discussion/new//r/discussion/lw/nb5/the_ethics_of_eating_meat/'
p81
aS'http://lesswrong.com/lw/jj/conjunction_controversy_or_how_they_nail_it_down/'
p82
aS'http://www.lesswrong.com/recentposts/lw/myg/meetup_reviving_cambridge_meetups/'
p83
aS'https://wiki.lesswrong.com/wiki/Intentional_Insights'
p84
aS'http://lesswrong.com/recentposts/?count=250&after=t3_mkp'
p85
aS'http://www.lesswrong.com/recentposts/lw/mtg/meetup_washington_dc_availability_heuristic/'
p86
aS'http://lesswrong.com/lw/ip/fake_explanations/'
p87
aS'http://www.lesswrong.com/recentposts/lw/n8n/meetup_role_playing_game_based_on_hpmor_in_moscow/'
p88
aS'http://www.lesswrong.com/recentposts/lw/naj/meetup_washington_dc_national_portrait/'
p89
aS'http://lesswrong.com/user/MakoYass/'
p90
aS'http://www.lesswrong.com/recentposts/lw/mqb/meetup_san_francisco_meetup_short_talks/'
p91
aS'http://www.lesswrong.com/recentposts/lw/n6d/meetup_washington_dc_economics_discussion/'
p92
aS'http://lesswrong.com/lw/ji/conjunction_fallacy/c8uq'
p93
aS'http://www.lesswrong.com/recentposts/lw/myd/meetup_lesswrong_sao_paulo_monthly_meetup/'
p94
aS'http://www.lesswrong.com/recentposts/lw/n5h/unofficial_cfar_canon_on_applied_rationality/'
p95
aS'http://lesswrong.com/user/Raemon'
p96
aS'http://lesswrong.com/user/metaweta/'
p97
aS'http://www.lesswrong.com/recentposts/lw/n3o/meetup_san_antonio_meetup_cfar_techniques/'
p98
aS'http://www.lesswrong.com/recentposts/lw/mpe/rationality_quotes_thread_september_2015/'
p99
aS'http://lesswrong.com/user/philosophytorres/'
p100
aS'http://www.lesswrong.com/r/discussion/new//lw/qc/when_science_cant_help/'
p101
aS'http://lesswrong.com/user/oge'
p102
aS'http://www.lesswrong.com/lw/ji/conjunction_fallacy/#c8t2'
p103
aS'http://lesswrong.com/about/'
p104
aS'http://www.lesswrong.com/r/discussion/new//r/discussion/lw/nap/group_rationality_diary_february_2016/'
p105
aS'http://www.lesswrong.com/recentposts/lw/ml7/meetup_rationality_reading_group_7175/'
p106
aS'http://www.lesswrong.com/recentposts'
p107
aS'http://www.bettertoknow.wordpress.com'
p108
aS'http://www.lesswrong.com/recentposts/lw/mre/meetup_austin_tx_petrov_day_celebration/'
p109
aS'http://lesswrong.com/lw/ji/conjunction_fallacy/f65'
p110
aS'http://www.jefftk.com/p/why-global-poverty'
p111
aS'http://lesswrong.com/user/Stuart_Armstrong/'
p112
aS'http://www.lesswrong.com/r/discussion/new//r/discussion/lw/nbd/link_videogame_with_a_very_detailed_simulated/'
p113
aS'http://www.lesswrong.com/recentposts/lw/n9j/meetup_london_rationalish_meetup_7216/'
p114
aS'http://lesswrong.com/meetups'
p115
aS'http://lesswrong.com/lw/jr/how_to_convince_me_that_2_2_3/'
p116
aS'http://www.lesswrong.com/recentposts/lw/mtv/meetup_tel_aviv_hardware_verification_and_fai/'
p117
aS'http://wiki.lesswrong.com/wiki/Less_Wrong_meetup_groups#New_York_City.2C_NY'
p118
aS"http://www.lesswrong.com/recentpostsjavascript:hidecover('cover','loginpopup')"
p119
aS'http://wiki.lesswrong.com/wiki/Less_Wrong_meetup_groups#Brussels.2C_Belgium'
p120
aS'http://www.lesswrong.com/recentposts/lw/n9g/gamify_your_goals_how_turning_your_life_into_a/'
p121
aS'http://slatestarcodex.com/2016/01/10/slow-but-steady/'
p122
aS'http://www.lesswrong.com/recentposts/lw/mrg/a_courageous_story_of_brain_preservation_dying/'
p123
aS'http://lesswrong.com/user/AnnaSalamon'
p124
aS'http://www.lesswrong.com/recentposts/lw/mxb/systems_theory_terms/'
p125
aS'https://wiki.lesswrong.com/index.php?title=Lesswrong:Homepage&oldid=15014'
p126
aS'http://lesswrong.com/lw/if/your_strength_as_a_rationalist/'
p127
aS'http://www.lesswrong.com/recentposts/lw/mrh/meetup_melblw_social_meetup_september/'
p128
aS'https://complice.co/room/lesswrong'
p129
aS'http://lesswrong.com/user/Tuk'
p130
aS'http://www.lesswrong.com/lw/ji/conjunction_fallacy/#6geo'
p131
aS'http://lesswrong.com/user/Elo'
p132
aS'http://www.lesswrong.com/recentposts/lw/n2o/meetup_san_francisco_meetup_board_games/'
p133
aS'http://houshalter.tumblr.com/post/129129729935/summoning-the-least-powerful-genie'
p134
aS'http://www.lesswrong.com/r/discussion/new//lw/n3q/in_favour_of_total_utilitarianism_over_average/'
p135
aS'http://www.lesswrong.com/recentposts/lw/mth/meetup_lw_scotland_october_meetup/'
p136
aS'http://lesswrong.com/user/PeteMichaud'
p137
aS'http://lesswrong.com/user/EGI'
p138
aS'http://lesswrong.com/user/Fluttershy'
p139
aS'http://www.lesswrong.com/recentposts/lw/mtr/five_worlds_collide_2015_unconference_in_vienna/'
p140
aS'http://lesswrong.com/lw/ji/conjunction_fallacy/.rss'
p141
aS'http://wiki.lesswrong.com/wiki/Less_Wrong_meetup_groups#Denver.2C_CO'
p142
aS'http://lesswrong.com/r/discussion/new'
p143
aS'http://www.lesswrong.com/r/discussion/new//lw/lul/link_on_saving_the_world_and_other_delusions/'
p144
aS'https://stefanschubert.files.wordpress.com/2016/01/identifying-bias-a-bayesian-analysis-of-suspicious-agreement-between-beliefs-and-values-30-jan.pdf'
p145
aS'http://lesswrong.com/user/BayesianMind'
p146
aS'http://www.lesswrong.com/r/discussion/new//r/discussion/lw/n95/february_2016_media_thread/'
p147
aS'http://lesswrong.com/lw/ji/conjunction_fallacy/c8z1'
p148
aS'http://www.lesswrong.com/recentposts/lw/n5g/meetup_portland_meetup_dojo_style/'
p149
aS'http://www.lesswrong.com/lw/ji/conjunction_fallacy/#'
p150
aS'http://lesswrong.com/user/Acty'
p151
aS'http://lesswrong.com/user/Gleb_Tsipursky'
p152
aS'http://lesswrong.com/user/gwern/'
p153
aS'http://lesswrong.com/user/mh/'
p154
aS'http://www.lesswrong.com/recentposts/lw/mon/words_per_person_year_and_intellectual_rigor/'
p155
aS'http://lesswrong.com/user/Anatoly_Vorobey'
p156
aS'http://www.brainpreservation.org/content/donate'
p157
aS'http://www.lesswrong.com/recentposts/lw/n19/meetup_mitboston_secular_solstice/'
p158
aS'http://lesswrong.com/lw/1to/what_is_bayesianism/'
p159
aS'http://www.lesswrong.com/recentposts/lw/n27/meetup_washington_dc_sharing_book_excerpts/'
p160
aS'http://www.lesswrong.com/r/discussion/new//r/discussion/lw/n9f/a_rationalist_guide_to_okcupid/'
p161
aS'http://www.lesswrong.com/recentposts/password'
p162
aS'http://www.lesswrong.com/r/discussion/new//r/discussion/lw/naz/should_we_admit_it_when_a_persongroup_is_better/#comments'
p163
aS'http://houshalter.tumblr.com/post/138556191560/the-ai-that-pretends-to-be-human'
p164
aS'http://lesswrong.com/user/Bryan-san'
p165
aS'http://lesswrong.com/lw/1kn/two_truths_and_a_lie/'
p166
aS'http://lesswrong.com/r/discussion/new/?count=42&after=t3_n59'
p167
aS'http://www.lesswrong.com/lw/ji/conjunction_fallacy/javascript:void()'
p168
aS'http://lesswrong.com/user/Clarity/'
p169
aS'http://lesswrong.com/user/casebash/'
p170
aS'http://www.lesswrong.com/recentposts/lw/n9c/meetup_rationality_dojo_habits/'
p171
aS'http://lesswrong.com/user/Manfred'
p172
aS'http://lesswrong.com/comments'
p173
aS'http://www.lesswrong.com/r/discussion/new//lw/qi/faster_than_science/'
p174
aS'http://lesswrong.com/lw/g7y/morality_is_awesome/d4dd'
p175
aS'http://www.lesswrong.com/r/discussion/new//r/discussion/lw/na3/the_brain_preservation_foundations_small/'
p176
aS'http://www.lesswrong.com/recentposts/lw/n4v/meetup_london_diaspora_meetup_10012016/'
p177
aS'http://wiki.lesswrong.com/wiki/Special:RecentChanges'
p178
aS'http://www.lesswrong.com/r/discussion/new//lw/qj/einsteins_speed/'
p179
aS'http://lesswrong.com/user/dutchie'
p180
aS'http://www.lesswrong.com/r/discussion/new//r/discussion/lw/n8v/link_how_a_lamp_took_away_my_reading_and_a_box/'
p181
aS'http://www.lesswrong.com/r/discussion/new//r/discussion/lw/n9f/a_rationalist_guide_to_okcupid/#comments'
p182
aS'http://www.lesswrong.com/comments//about-less-wrong/'
p183
aS'http://intentionalinsights.org/where-do-our-mental-maps-lead-us-astray'
p184
aS'http://lesswrong.com/user/redline/'
p185
aS'http://www.lesswrong.com/recentposts/lw/mpp/meetup_boston_meetup/'
p186
aS'http://www.lesswrong.com/recentposts/lw/mvp/bay_area_solstice_2015/'
p187
aS'http://www.lesswrong.com/recentposts/lw/n9h/meetup_san_francisco_meetup_fun_and_games/'
p188
aS'http://lesswrong.com/user/Chriswaterguy'
p189
aS'http://www.lesswrong.com/r/discussion/new//lw/jo/einsteins_arrogance/'
p190
aS'http://www.lesswrong.com/recentposts/lw/msj/meetup_lesswrong_hamburg_2015_q4/'
p191
aS'http://lesswrong.com/user/Bluehawk/'
p192
aS'http://lesswrong.com/user/Houshalter/'
p193
aS'http://www.effective-altruism.com/ea/66/parenthood_and_effective_altruism/#_ftn13'
p194
aS'http://lesswrong.com/.rss'
p195
aS'http://www.lesswrong.com/lw/ji/conjunction_fallacy//tag/standard_biases/'
p196
aS'https://wiki.lesswrong.com/wiki/Cached_thought'
p197
aS'http://www.lesswrong.com/recentposts/lw/mq4/meetup_san_francisco_meetup_group_debugging/'
p198
aS'http://lesswrong.com/lw/ji/conjunction_fallacy/ap94'
p199
aS'http://www.lesswrong.com/recentposts/lw/mto/meetup_five_worlds_collide_vienna/'
p200
aS'http://lesswrong.com/user/cjb230'
p201
aS'http://www.lesswrong.com/r/discussion/new//lw/lhg/2014_survey_results/'
p202
aS'http://www.lesswrong.com/r/discussion/new//lw/lx0/rationality_from_ai_to_zombies_online_reading/'
p203
aS'http://www.lesswrong.com/recentposts/lw/mvc/meetup_socializing_and_board_games/'
p204
aS'http://www.lesswrong.com/recentposts/lw/n0c/meetup_sydney_rationality_dojo_december/'
p205
aS'http://lesswrong.com/user/MarieLa'
p206
aS'http://www.lesswrong.com/recentposts/lw/mol/meetup_biases_and_making_better_decisions/'
p207
aS'http://www.lesswrong.com/r/discussion/new//r/discussion/lw/n7n/weekly_lw_meetups/'
p208
aS'http://www.lesswrong.com/r/discussion/new//r/discussion/lw/n8o/clearing_an_overgrown_garden/'
p209
aS'http://www.lesswrong.com/r/discussion/new//r/discussion/lw/n9t/open_thread_feb_8_feb_15_2016/#comments'
p210
aS'http://www.lesswrong.com/recentposts/lw/mtf/meetup_sydney_rationality_dojo_october/'
p211
aS'http://www.lesswrong.com/recentposts/lw/n6y/meetup_lw_cologne_meetup/'
p212
aS'http://www.lesswrong.com/r/discussion/new//r/discussion/lw/nb9/goal_completion_noise_errors_bias_prejudice/#comments'
p213
aS'http://www.lesswrong.com/r/discussion/new//r/discussion/lw/nad/rationality_reading_group_part_t_science_and/#comments'
p214
aS'http://wiki.lesswrong.com/wiki/Less_Wrong_meetup_groups#Canberra'
p215
aS'http://www.lesswrong.com/recentposts/lw/n5s/meetup_lesswrong_community_weekend/'
p216
aS'http://www.lesswrong.com/recentposts/lw/mr4/meetup_tel_aviv_black_holes_after_jacob_bekenstein/'
p217
aS'http://www.lesswrong.com/recentposts/lw/mu3/rationality_cardinality/'
p218
aS'http://lesswrong.com/user/Sonder_Wand/'
p219
aS'http://www.lesswrong.com/r/discussion/new//r/discussion/lw/n9w/altruistic_parenting/'
p220
aS'http://www.lesswrong.com/recentposts/lw/n1j/meetup_san_francisco_meetup_rationality_diary/'
p221
aS'http://www.lesswrong.com/r/discussion/new//lw/kfq/moderator_action_eugine_nier_is_now_banned_for/'
p222
aS'http://lesswrong.com/r/discussion/recentposts'
p223
aS'http://www.lesswrong.com/recentposts/lw/mt1/meetup_first_meetup_in_stockholm/'
p224
aS'http://www.lesswrong.com/recentposts/lw/n4p/meetup_washington_dc_meta_meetup/'
p225
aS'http://www.lesswrong.com/recentposts/lw/mtp/meetup_five_worlds_collide_vienna/'
p226
aS'http://www.lesswrong.com/recentposts/lw/mqs/meetup_washington_dc_sorting_hat/'
p227
aS'https://en.wikipedia.org/wiki/The_Beginning_of_Infinity'
p228
aS'www.lesswrong.com'
p229
aS'http://www.lesswrong.com/recentposts/lw/mwb/meetup_washington_dc_wise_sayings/'
p230
aS'http://lesswrong.com/user/lessdazed/'
p231
aS'http://www.lesswrong.com/r/discussion/new//r/discussion/lw/n99/the_ai_that_pretends_to_be_human/#comments'
p232
aS'http://np.reddit.com/comments/2yfknl/in_answer_to_tbs_recent_twitlonger_where_are_the/cp926nt?context=1'
p233
aS'http://wiki.lesswrong.com/wiki/Less_Wrong_meetup_groups#Madison.2C_WI'
p234
aS'http://www.effective-altruism.com/ea/66/parenthood_and_effective_altruism/#_ftn14'
p235
aS'http://www.lesswrong.com/recentposts/lw/mz0/meetup_cambridge_ma_sunday_meetup_the_contrarian/'
p236
aS'http://arxiv.org/pdf/0905.1283.pdf'
p237
aS'http://lesswrong.com/user/Catapult/'
p238
aS'http://lesswrong.com/user/ESRogs/'
p239
aS'http://lesswrong.com/user/nino'
p240
aS'https://www.reddit.com/user/KenHayworth'
p241
aS'http://www.lesswrong.com/recentposts/lw/mos/meetup_san_francisco_meetup_projects/'
p242
aS'http://lesswrong.com/lw/n8u/a_medical_mystery_thyroid_hormones_chronic/d4dp'
p243
aS'http://www.lesswrong.com/recentposts/lw/n73/meetup_melblw_social_meetup_jan_2016/'
p244
aS'http://fcmconference.org/img/CambridgeDeclarationOnConsciousness.pdf'
p245
aS'http://www.lesswrong.com/r/discussion/new//r/discussion/lw/n5z/value_learners_wireheading/#comments'
p246
aS'http://www.lesswrong.com/r/discussion/new//r/discussion/lw/nao/cheerful_oneliners_and_disjointed_anecdotes/#comments'
p247
aS'http://www.lesswrong.com/recentposts/lw/mye/meetup_lund_meetup/'
p248
aS'http://lesswrong.com/user/Wayne_F._Bretski/'
p249
aS'http://lesswrong.com/user/Gunnar_Zarncke'
p250
aS'http://www.lesswrong.com/recentposts/lw/mn6/meetup_melblw_social_meetup/'
p251
aS'http://www.lesswrong.com/recentposts/lw/mtn/meetup_rationality_meetup_vienna/'
p252
aS'http://lesswrong.com/user/So8res'
p253
aS'http://lesswrong.com/lw/n9y/is_spirituality_irrational/d4dn'
p254
aS'http://www.lesswrong.com/r/discussion/new//r/discussion/new/'
p255
aS'http://blog.okcupid.com'
p256
aS'http://lesswrong.com/user/berekuk'
p257
aS'http://www.technologyreview.com/qa/546301/will-machines-eliminate-us/'
p258
aS'http://lesswrong.com/user/elharo'
p259
aS'http://www.lesswrong.com/recentposts/lw/mwm/meetup_first_meetup_of_rationality_zurich/'
p260
aS'http://lesswrong.com/user/S.S./'
p261
aS'http://www.lesswrong.com/r/discussion/new//r/discussion/lw/nb9/goal_completion_noise_errors_bias_prejudice/#more'
p262
aS'http://www.lesswrong.com/r/discussion/new//r/discussion/lw/n8s/moderator_action_the_lion_and_the_lion2_are_banned/'
p263
aS'http://www.lesswrong.com/recentposts/lw/n6a/the_correct_response_to_uncertainty_is_not/'
p264
aS'http://lesswrong.com/user/AnnaLeptikon'
p265
aS'http://lesswrong.com/user/leohmarruda'
p266
aS'http://lesswrong.com/user/FourFire'
p267
aS'http://www.christianitytoday.com/ct/2007/augustweb-only/135-43.0.html'
p268
aS'http://www.lesswrong.com/r/discussion/new//r/discussion/lw/n9n/request_for_help_with_economic_analysis_related/'
p269
aS'http://www.lesswrong.com/r/discussion/new//r/discussion/lw/n9q/conveying_rational_thinking_about_longterm_goals/#comments'
p270
aS'http://lesswrong.com/lw/n9y/is_spirituality_irrational/d4di'
p271
aS'http://www.lesswrong.com/recentposts/lw/mi7/miris_2015_summer_fundraiser/'
p272
aS'http://lesswrong.com/user/Michael_Sullivan/'
p273
aS'http://www.lesswrong.com/recentposts/lw/mzd/reflective_oracles_and_superationality/'
p274
aS'http://www.lesswrong.com/r/discussion/new//r/discussion/lw/nao/cheerful_oneliners_and_disjointed_anecdotes/#more'
p275
aS'https://en.wikipedia.org/wiki/Effective_altruism#Cause_prioritization'
p276
aS'http://lesswrong.com/user/JoshuaFox'
p277
aS'http://lesswrong.com/user/ezzelino/'
p278
aS'http://www.lesswrong.com/recentposts/lw/nay/meetup_melblw_social_meetup_feb_2016/'
p279
aS'http://www.lesswrong.com/r/discussion/new//lw/yp/pretending_to_be_wise/'
p280
aS'http://www.lesswrong.com/recentposts/lw/n9p/meetup_less_wrong_nh_meetup/'
p281
aS'http://lesswrong.com/user/Hopefully_Anonymous/'
p282
aS'http://www.lesswrong.com/recentposts/lw/mnu/meetup_lw_canberra_presents_even_more_zendo/'
p283
aS'http://www.lesswrong.com/password'
p284
aS'http://lesswrong.com/lw/ji/conjunction_fallacy/2asp'
p285
aS'http://www.lesswrong.com/comments//r/lesswrong/lw/nav/less_wrong_karma_chart_website/'
p286
aS'http://lesswrong.com/user/adamzerner'
p287
aS'http://www.lesswrong.com/comments//password'
p288
aS'http://www.lesswrong.com/recentposts/lw/mpu/meetup_west_la_fiction_considered_harmful/'
p289
aS'http://www.lesswrong.com/recentposts/lw/mo1/meetup_less_wrong_melbourne_september_dojo/'
p290
aS'http://lesswrong.com/user/Vaniver'
p291
aS'http://www.lesswrong.com/r/discussion/new//r/discussion/lw/n9m/weekly_lw_meetups/'
p292
aS'http://www.lesswrong.com/r/discussion/new//lw/n3z/voiceofra_is_banned/'
p293
aS'http://www.lesswrong.com/recentposts/lw/mp3/proper_posture_for_mental_arts/'
p294
aS'http://www.lesswrong.com/recentposts/lw/mrt/meetup_san_francisco_meetup_fun_and_games/'
p295
aS'https://github.com/tricycle/lesswrong/wiki/Issues,-Bugs,-and-Requested-Features'
p296
aS'http://www.lesswrong.com/recentposts/lw/mx9/meetup_moscow_meetup_science_research_issues/'
p297
aS'http://www.lesswrong.com/recentposts/lw/n7a/meetup_washington_dc_postponed_for_snow/'
p298
aS'http://lesswrong.com/recentposts'
p299
aS'https://wiki.lesswrong.com/wiki/Ugh_field'
p300
aS'http://lesswrong.com/user/AspiringRationalist/'
p301
aS'http://lesswrong.com/user/Vulture/'
p302
aS'http://www.brainpreservation.org/opinion-the-prize-win-is-a-vindication-of-the-idea-of-cryonics-not-of-unaccountable-cryonics-service-organizations/'
p303
aS'http://www.lesswrong.com/recentposts/lw/ms8/meetup_lw_cologne_meetup/'
p304
aS'http://www.lesswrong.com/comments//lw/n8u/a_medical_mystery_thyroid_hormones_chronic/'
p305
aS'http://www.lesswrong.com/recentposts/lw/n6r/meetup_less_wrong_nh_meetup/'
p306
aS'https://thingofthings.wordpress.com/2015/09/30/having-children-as-effective-altruism/'
p307
aS'http://lesswrong.com/r/discussion/comments'
p308
aS'http://www.lesswrong.com/recentposts/lw/n4l/safety_engineering_target_selection_and_alignment/'
p309
aS'http://www.lesswrong.com/recentposts/lw/mlm/meetup_lw_cologne_meetup/'
p310
aS'http://www.lesswrong.com/recentposts/lw/n3t/meetup_donation_decision_day/'
p311
aS'http://www.lesswrong.com/lw/ji/conjunction_fallacy//lw/ji/conjunction_fallacy/'
p312
aS"http://www.lesswrong.com/comments/javascript:hidecover('cover','loginpopup')"
p313
aS'http://www.lesswrong.com/recentposts/lw/n33/european_community_weekend_2016/'
p314
aS'http://www.lesswrong.com/r/discussion/new//lw/jik/cryonics_as_untested_medical_procedure/'
p315
aS'http://www.lesswrong.com/r/discussion/new//lw/373/how_to_save_the_world/'
p316
aS'http://lesswrong.com/user/johnlawrenceaspden'
p317
aS'http://www.lesswrong.com/comments//lw/ih/absence_of_evidence_is_evidence_of_absence/'
p318
aS'http://lesswrong.com/comments/.rss'
p319
aS'http://www.lesswrong.com/recentposts/lw/mw8/meetup_san_antonio_meetup/'
p320
aS"http://www.lesswrong.com/recentpostsjavascript:hidecover('langcover','langpopup')"
p321
aS'http://wiki.lesswrong.com/wiki/Less_Wrong_meetup_groups#Moscow.2C_Russia'
p322
aS'http://www.lesswrong.com/r/discussion/new//lw/m8u/update_on_the_brain_preservation_foundation_prize/'
p323
aS'http://wiki.lesswrong.com/wiki/Less_Wrong_meetup_groups#Austin.2C_TX'
p324
aS'http://www.signalmountainumc.org'
p325
aS'http://www.lesswrong.com/recentposts/lw/mt9/meetup_suzhou_meetup/'
p326
aS'https://en.wikipedia.org/wiki/Future_of_Humanity_Institute'
p327
aS'http://lesswrong.com/user/nerd_gatherer/'
p328
aS'http://www.lesswrong.com/recentposts/lw/msm/the_temptation_to_bubble/'
p329
aS'http://www.lesswrong.com/recentposts/lw/mum/meetup_washington_dc_fun_games/'
p330
aS'http://www.lesswrong.com/recentposts/lw/moo/meetup_regular_moscow_meetup_copyright_debates/'
p331
aS'http://www.lesswrong.com/r/discussion/new//r/discussion/lw/n8m/weekly_lw_meetups/#more'
p332
aS'http://www.lesswrong.com/recentposts/lw/mkp/meetup_san_francisco_meetup_excerpts_from_good/'
p333
aS'http://lesswrong.com/lw/ji/conjunction_fallacy/f6g'
p334
aS'http://lesswrong.com/comments/?count=20&after=t1_d4d9'
p335
aS'http://www.lesswrong.com/r/discussion/new//r/discussion/lw/n58/require_contributions_in_advance/'
p336
aS'http://lesswrong.com/user/johnsonmx'
p337
aS'http://www.lesswrong.com/comments//lw/n8u/a_medical_mystery_thyroid_hormones_chronic/d4a3?context=1#d4a3'
p338
aS'http://www.gwern.net/docs/1985-hofstadter'
p339
aS'http://www.lesswrong.com/r/discussion/new//about-less-wrong/'
p340
aS'http://intentionalinsights.org/advisory-board'
p341
aS'http://lesswrong.com/user/tardigrade/'
p342
aS'http://lesswrong.com/user/luminosity'
p343
aS'http://www.lesswrong.com/r/discussion/new//meetups/1kh'
p344
aS'http://www.lesswrong.com/recentposts/lw/mks/meetup_turku/'
p345
aS'http://wiki.lesswrong.com/wiki/Less_Wrong_meetup_groups#Melbourne'
p346
aS'https://en.wikipedia.org/wiki/Eschatology'
p347
aS'http://lesswrong.com/user/jimrandomh'
p348
aS'http://www.lesswrong.com/r/discussion/new//r/discussion/lw/n7n/weekly_lw_meetups/#comments'
p349
aS'http://www.lesswrong.com/recentposts/lw/mxh/meetup_nyc_solstice/'
p350
aS'http://intentionalinsights.org/religious-and-rational'
p351
aS'http://www.lesswrong.com/r/discussion/new//lw/nam/weekly_lw_meetups/'
p352
aS'http://lesswrong.com/user/Gleb_Tsipursky/'
p353
aS'http://www.lesswrong.com/recentposts/lw/my2/meetup_seattle_rationality_reading_group_109114/'
p354
aS'http://lesswrong.com/lw/ji/conjunction_fallacy/6dn6'
p355
aS'http://lesswrong.com/user/gressettd'
p356
aS'http://creativecommons.org/licenses/by/3.0/'
p357
aS'http://lesswrong.com/lw/ji/conjunction_fallacy/77jw'
p358
aS'http://lesswrong.com/lw/2b0/bayes_theorem_illustrated_my_way'
p359
aS'http://www.lesswrong.com/lw/ji/conjunction_fallacy/#c0s9'
p360
aS'http://www.lesswrong.com/recentposts/lw/n5k/a_toy_model_of_the_treacherous_turn/'
p361
aS'http://lesswrong.com/lw/n9y/is_spirituality_irrational/d4dg'
p362
aS'http://www.lesswrong.com/r/discussion/new//lw/f1/beware_trivial_inconveniences/'
p363
aS'http://www.lesswrong.com/recentposts/lw/nar/meetup_rationality_meetup_vienna/'
p364
aS'http://lesswrong.com/user/rocurley'
p365
aS'http://wiki.lesswrong.com/wiki/Less_Wrong_meetup_groups#New_Hampshire'
p366
aS'http://www.lesswrong.com/comments//r/lesswrong/lw/nb2/the_value_of_those_in_ea/'
p367
aS'http://lesswrong.com/lw/n9y/is_spirituality_irrational/d4dh'
p368
aS'http://www.lesswrong.com/recentposts/lw/nb2/the_value_of_those_in_effective_altruism/'
p369
aS'http://www.lesswrong.com/r/discussion/new//r/discussion/lw/n7w/beware_surprising_and_suspicious_convergence/'
p370
aS'http://www.lesswrong.com/r/discussion/new//r/discussion/lw/nan/on_why_global_poverty_and_arguments_from/#comments'
p371
aS'http://www.lesswrong.com/recentposts/lw/mlj/meetup_west_la_problem_solving/'
p372
aS'http://www.lesswrong.com/recentposts/lw/mmy/meetup_rationality_meetup_vienna/'
p373
aS'http://lesswrong.com/lw/n9y/is_spirituality_irrational/d4dx'
p374
aS'http://www.lesswrong.com/recentposts/lw/n40/meetup_washington_dc_holidays_socialization/'
p375
aS'http://lesswrong.com/user/gjm/'
p376
aS'http://www.lesswrong.com/recentposts/lw/mt4/meetup_fallacymania_game_in_kocherga_club/'
p377
aS'http://lesswrong.com/user/Manfred/'
p378
aS'http://lesswrong.com/lw/lg/the_affect_heuristic/'
p379
aS'http://www.lesswrong.com/recentposts/lw/n1o/miris_2015_winter_fundraiser/'
p380
aS'http://lesswrong.com/lw/ji/conjunction_fallacy/c8t2'
p381
aS'http://www.lesswrong.com/r/discussion/new//r/discussion/lw/nal/where_does_our_community_disagree_about/'
p382
aS'http://www.lesswrong.com/recentposts/lw/n7r/meetup_lesswrong_aus_online_hangout/'
p383
aS'http://www.lesswrong.com/recentposts/lw/mtb/meetup_reading_first_meetup/'
p384
aS'http://lesswrong.com/user/tanagrabeast'
p385
aS'http://lesswrong.com/sequences/'
p386
aS'http://www.lesswrong.com/recentposts/lw/n84/meetup_rationality_meetup_vienna/'
p387
aS'http://lesswrong.com/user/josh/'
p388
aS'https://wiki.lesswrong.com/wiki/Politics_is_the_Mind-Killer'
p389
aS'http://www.evidencebasedcryonics.org/media/MBPP.pdf'
p390
aS'http://lesswrong.com/r/discussion/'
p391
aS'http://www.lesswrong.com/recentposts/lw/nbc/meetup_san_antonio_meetup/'
p392
aS'http://www.lesswrong.com/recentposts/lw/mqm/meetup_less_wrong_nh_meetup/'
p393
aS'http://www.lesswrong.com/recentposts/lw/mz8/noncommunicable_evidence/'
p394
aS'http://lesswrong.com/user/minusdash/'
p395
aS"http://www.lesswrong.com/r/discussion/new/javascript:hidecover('cover','loginpopup')"
p396
aS'http://lesswrong.com/user/FrankAdamek/'
p397
aS'http://www.lesswrong.com/recentposts/lw/my0/meetup_warsaw_november_meetup/'
p398
aS'http://www.lesswrong.com/r/discussion/new//r/discussion/lw/n7n/weekly_lw_meetups/#more'
p399
aS'http://www.lesswrong.com/recentposts/lw/n98/rationality_quotes_thread_february_2016/'
p400
aS'https://www.fhi.ox.ac.uk/strategic-considerations-about-different-speeds-of-ai-takeoff/'
p401
aS'http://www.lesswrong.com/recentposts/lw/mrs/meetup_washington_dc_fun_games/'
p402
aS'https://en.wikipedia.org/wiki/Calvinism'
p403
aS'http://www.lesswrong.com/r/discussion/new//r/discussion/lw/n9m/weekly_lw_meetups/#more'
p404
aS'http://www.lesswrong.com/recentposts/lw/msf/meetup_cambridge_less_wrong_meetup_book/'
p405
aS'http://www.lesswrong.com/recentposts/lw/myh/less_wrong_study_hall_now_with_100_less_tinychat/'
p406
aS'http://www.lesswrong.com/recentposts/lw/mu8/meetup_san_francisco_meetup_projects/'
p407
aS'http://www.lesswrong.com/recentposts/lw/mzj/meetup_washington_dc_fun_games/'
p408
aS'http://www.lesswrong.com/recentposts/lw/mwq/meetup_san_francisco_meetup_ted_talks/'
p409
aS"http://www.lesswrong.com/lw/ji/conjunction_fallacy/javascript:hidecover('cover','loginpopup')"
p410
aS'http://www.lesswrong.com/r/discussion/new//lw/l9b/optimizing_ways_to_convey_rational_thinking/bm0m'
p411
aS'http://lesswrong.com/lw/n5h/unofficial_cfar_canon_on_applied_rationality/d4et'
p412
aS'http://lesswrong.com/user/CBHacking'
p413
aS'http://www.lesswrong.com/r/discussion/new//r/discussion/lw/nb4/estimating_the_probability_of_human_extinction/'
p414
aS'http://www.lesswrong.com/r/discussion/new//r/discussion/lw/na1/religious_and_rational/'
p415
aS'http://www.lesswrong.com/recentposts/lw/n2e/meetup_less_wrong_nh_meetup/'
p416
aS'http://www.lesswrong.com/recentposts/lw/n0u/meetup_san_antonio_tap_discussion/'
p417
aS'http://lesswrong.com/user/Alia1d/'
p418
aS'http://www.youtube.com/watch?v=mkO87mkgcNo'
p419
aS'http://www.lesswrong.com/recentposts/lw/nax/meetup_washington_dc_fun_games/'
p420
aS'http://www.lesswrong.com/recentposts/lw/myn/meetup_seattle_solstice/'
p421
aS'http://en.wikipedia.org/wiki/Base_rate_fallacy'
p422
aS'http://www.lesswrong.com/recentposts/lw/mu6/meetup_meetup_turku_meetup_critique_towards_less/'
p423
aS'https://intelligence.org/rationality-ai-zombies/'
p424
aS'http://www.lesswrong.com/recentposts/lw/mnt/on_empirical_truth_and_affective_truth/'
p425
aS'http://wiki.lesswrong.com/wiki/Less_Wrong_meetup_groups#Tortuga_.28in_Mountain_View.29'
p426
aS'http://lesswrong.com/new/'
p427
aS'http://www.lesswrong.com/recentposts/lw/n9a/meetup_washington_dc_fermi_estimates/'
p428
aS'http://www.lesswrong.com/recentposts/lw/my3/rationality_merchandise_first_set/'
p429
aS'http://www.lesswrong.com/r/discussion/new//lw/qd/science_isnt_strict_enough/'
p430
aS'http://www.lesswrong.com/recentposts/lw/mor/meetup_discussions_on_determining_between_right/'
p431
aS'http://www.lesswrong.com/r/discussion/new//lw/qe/do_scientists_already_know_this_stuff/'
p432
aS'http://www.lesswrong.com/lw/ji/conjunction_fallacy/#f6d'
p433
aS'http://www.lesswrong.com/recentposts/lw/n7q/meetup_san_francisco_meetup_group_debugging/'
p434
aS'http://www.lesswrong.com/r/discussion/new//r/discussion/lw/nb5/the_ethics_of_eating_meat/#comments'
p435
aS'http://www.lesswrong.com/r/discussion/new//meetups/1l7'
p436
aS'http://www.lesswrong.com/recentposts/lw/nav/less_wrong_karma_chart_website/'
p437
aS'http://lesswrong.com/lw/n8u/a_medical_mystery_thyroid_hormones_chronic/d4f8'
p438
aS'http://www.lesswrong.com/r/discussion/new//r/discussion/lw/n96/principia_compat_the_potential_importance_of/'
p439
aS'http://ieet.org/index.php/IEET/more/torres20120213'
p440
aS'http://www.lesswrong.com/recentposts/lw/mso/meetup_washington_dc_singing/'
p441
aS'http://www.thesurrogacysource.com/sg_compensation.htm'
p442
aS'https://en.wikipedia.org/wiki/Satisficing'
p443
aS'http://lesswrong.com/tag/quotes'
p444
aS'http://www.lesswrong.com/r/discussion/new//slatestarcodex.com/2014/07/30/meditations-on-moloch'
p445
aS'http://lesswrong.com/lw/ji/conjunction_fallacy/c41z'
p446
aS'http://lesswrong.com/user/mkf'
p447
aS'http://www.lesswrong.com/recentposts/about-less-wrong/'
p448
aS'https://www.facebook.com/esrogs/posts/10101324358726304'
p449
aS'http://wiki.lesswrong.com/wiki/Less_Wrong_meetup_groups#Vienna.2C_Austria'
p450
aS'http://www.lesswrong.com/r/discussion/new//r/discussion/lw/nao/cheerful_oneliners_and_disjointed_anecdotes/'
p451
aS'http://www.lesswrong.com/r/discussion/new//r/discussion/lw/n9v/lesswrong_survey_invitation_for_suggestions/'
p452
aS'http://www.lesswrong.com/r/discussion/new//r/discussion/lw/n8q/positive_utility_in_an_infinite_universe/'
p453
aS'http://www.lesswrong.com/recentposts/lw/n4q/meetup_san_francisco_meetup_revealed_new_years/'
p454
aS'http://www.lesswrong.com/recentposts/lw/mxa/meetup_west_la_futarchy/'
p455
aS'http://www.lesswrong.com/comments//lw/jr/how_to_convince_me_that_2_2_3/'
p456
aS'http://lesswrong.com/user/k_ebel/'
p457
aS'http://www.lesswrong.com/r/discussion/new//r/discussion/lw/n8q/positive_utility_in_an_infinite_universe/#comments'
p458
aS'http://www.sciencedirect.com/science/article/pii/S001122401500245X'
p459
aS'http://lesswrong.com/user/lionhearted'
p460
aS'http://www.lesswrong.com/recentposts/lw/moa/meetup_schelling_cafe/'
p461
aS'http://www.lesswrong.com/recentposts/lw/n00/meetup_lwcologne_meetup/'
p462
aS'http://wiki.lesswrong.com/wiki/Rationality_materials'
p463
aS'http://www.lesswrong.com/r/discussion/new//user/Eliezer_Yudkowsky/'
p464
aS'http://www.lesswrong.com/recentposts/lw/mvu/meetup_washington_dc_utilitarianism/'
p465
aS'http://www.lesswrong.com/r/discussion/new//r/discussion/lw/n99/the_ai_that_pretends_to_be_human/'
p466
aS'http://lesswrong.com/lw/nb2/the_value_of_those_in_effective_altruism/d4fb'
p467
aS'http://www.lesswrong.com/r/discussion/new//r/discussion/lw/n8m/weekly_lw_meetups/#comments'
p468
aS'http://lesswrong.com/lw/nb2/the_value_of_those_in_effective_altruism/d4fg'
p469
aS'http://www.lesswrong.com/recentposts/lw/n2b/fhi_is_hiring_researchers/'
p470
aS'http://www.lesswrong.com/r/discussion/new//lw/3be/confidence_levels_inside_and_outside_an_argument/'
p471
aS'http://www.lesswrong.com/recentposts/lw/n2p/state_of_the_solstice_ny_event_upcoming/'
p472
aS'http://wiki.lesswrong.com/wiki/FAQ'
p473
aS'http://www.lesswrong.com/comments//lw/n9y/is_spirituality_irrational/d4cu?context=1#d4cu'
p474
aS'http://www.lesswrong.com/recentposts/lw/mue/meetup_lesswrong_sao_paulo/'
p475
aS'http://www.lesswrong.com/r/discussion/new//lw/q9/the_failures_of_eld_science/'
p476
aS'http://www.lesswrong.com/recentposts/lw/mmn/meetup_tel_aviv_board_game_night/'
p477
aS'http://www.lesswrong.com/recentposts/lw/mqx/meetup_lw_scotland_september_meetup/'
p478
aS'http://www.lesswrong.com/lw/ji/conjunction_fallacy//about-less-wrong/'
p479
aS'http://lesswrong.com/lw/ji/conjunction_fallacy/c8y6'
p480
aS'http://lesswrong.com/user/Maelin'
p481
aS'http://lesswrong.com/r/discussion/comments/'
p482
aS'http://lesswrong.com/user/Sebastian_Hagen2/'
p483
aS'http://www.lesswrong.com/recentposts/lw/n4w/meetup_palo_alto_meetup_the_economics_of_ai/'
p484
aS'http://www.lesswrong.com/recentposts/lw/n7m/goal_completion_algorithm_ideas/'
p485
aS'http://lesswrong.com/user/agilecaveman'
p486
aS'http://www.lesswrong.com/comments//lw/nb2/the_value_of_those_in_effective_altruism/d4fb?context=1#d4fb'
p487
aS'http://www.lesswrong.com/recentposts/lw/n6u/meetup_cambridge_less_wrong_tutoring_wheels/'
p488
aS'http://www.lesswrong.com/r/discussion/new//r/discussion/tag/media_thread/'
p489
aS'http://www.lesswrong.com/r/discussion/new//lw/nr/the_argument_from_common_usage/'
p490
aS'http://wiki.lesswrong.com/wiki/Less_Wrong_meetup_groups#Columbus.2C_OH'
p491
aS'http://www.lesswrong.com/recentposts/lw/mps/why_dont_rationalists_win/'
p492
aS'http://lesswrong.com/user/Romashka/'
p493
aS'http://lesswrong.com/user/polymathwannabe/'
p494
aS'http://lesswrong.com/user/kotrfa'
p495
aS'http://lesswrong.com/lw/eg/what_i_tell_you_three_times_is_true/'
p496
aS'http://www.lesswrong.com/comments//lw/n9y/is_spirituality_irrational/d4d1?context=1#d4d1'
p497
aS'http://www.lesswrong.com/recentposts/lw/n17/meetup_washington_dc_create_complete/'
p498
aS'http://www.lesswrong.com/r/discussion/new//r/discussion/lw/n8r/yoshua_bengio_on_ai_progress_hype_and_risks/#comments'
p499
aS'http://lesswrong.com/user/albatross/'
p500
aS'http://www.lesswrong.com/recentposts/lw/n1w/meetup_baltimore_area_meetup/'
p501
aS'http://www.lesswrong.com/recentposts/lw/mzu/meetup_less_wrong_nh_meetup/'
p502
aS'http://lesswrong.com/lw/nav/less_wrong_karma_chart_website/d4ej'
p503
aS'http://www.lesswrong.com/recentposts/lw/mu4/rationality_quotes_thread_october_2015/'
p504
aS'http://lesswrong.com/lw/ji/conjunction_fallacy/41dl'
p505
aS'http://lesswrong.com/user/Gunnar_Zarncke/'
p506
aS'http://www.lesswrong.com/r/discussion/new//meetups/1l6'
p507
aS'http://lesswrong.com/lw/ji/conjunction_fallacy/cb86'
p508
aS'http://www.lesswrong.com/r/discussion/new//meetups/1l4'
p509
aS'http://www.lesswrong.com/r/discussion/new//meetups/1l5'
p510
aS'http://www.lesswrong.com/r/discussion/new//meetups/1l2'
p511
aS'http://www.lesswrong.com/r/discussion/new//meetups/1l3'
p512
aS'http://www.lesswrong.com/r/discussion/new//meetups/1l0'
p513
aS'http://www.lesswrong.com/r/discussion/new//meetups/1l1'
p514
aS'http://lesswrong.com/user/Anders_H'
p515
aS'http://lesswrong.com/user/Marko'
p516
aS'http://www.fhi.ox.ac.uk/'
p517
aS'http://www.lesswrong.com/r/discussion/new//meetups/1l8'
p518
aS'http://lesswrong.com/user/Rick_from_Castify'
p519
aS'http://www.lesswrong.com/r/discussion/new//meetups/1kr'
p520
aS'http://www.lesswrong.com/recentposts/lw/n2y/meetup_melblw_social_meetup/'
p521
aS'http://www.lesswrong.com/r/discussion/new//meetups/1kv'
p522
aS'http://www.lesswrong.com/r/discussion/new//meetups/1ku'
p523
aS'http://www.lesswrong.com/r/discussion/new//meetups/1kt'
p524
aS'http://www.lesswrong.com/r/discussion/new//meetups/1kz'
p525
aS'http://www.lesswrong.com/r/discussion/new//meetups/1ky'
p526
aS'http://www.lesswrong.com/r/discussion/new//meetups/1kx'
p527
aS'http://www.lesswrong.com/recentposts/lw/n08/audio_version_of_rationality_from_ai_to_zombies/'
p528
aS'http://www.lesswrong.com/r/discussion/new//r/discussion/lw/mpq/lesswrong_real_time_chat/'
p529
aS'http://lesswrong.com/user/contravariant/'
p530
aS'http://www.lesswrong.com/r/discussion/new//meetups/1kj'
p531
aS'http://www.vox.com/2015/9/10/9188517/political-bias'
p532
aS'http://www.lesswrong.com/r/discussion/new//meetups/1ko'
p533
aS'http://www.lesswrong.com/recentposts/lw/nb8/meetup_moscow_meetup_hamming_circle_fallacymania/'
p534
aS'http://www.lesswrong.com/r/discussion/new//meetups/1kl'
p535
aS'http://www.lesswrong.com/r/discussion/new//lw/n8m/weekly_lw_meetups/'
p536
aS'http://lesswrong.com/user/Viliam/'
p537
aS'http://lesswrong.com/user/PhilGoetz'
p538
aS'http://lesswrong.com/user/maia'
p539
aS'http://www.lesswrong.com/r/discussion/new//password'
p540
aS'http://lesswrong.com/user/Salokin'
p541
aS'http://lesswrong.com/user/ArisKatsaris/'
p542
aS'http://www.lesswrong.com/recentposts/lw/n2d/meetup_moscow_social_meetup_chaos_is_back/'
p543
aS'http://lesswrong.com/user/Zian/'
p544
aS'http://lesswrong.com/user/Constant2/'
p545
aS'http://www.lesswrong.com/recentposts/lw/mnj/meetup_washington_dc_chestertons_fence/'
p546
aS'http://www.lesswrong.com/r/discussion/new//r/discussion/lw/n9b/upcoming_lw_changes/#more'
p547
aS'http://www.lesswrong.com/recentposts/lw/mqt/meetup_effective_altruism_lesswrong_tel_aviv/'
p548
aS'http://www.lesswrong.com/r/discussion/new//r/discussion/lw/n59/the_number_choosing_game_against_the_existence_of/'
p549
aS'http://www.lesswrong.com/recentposts/lw/n1e/meetup_tel_aviv_game_night/'
p550
aS'http://www.lesswrong.com/r/discussion/new//lw/66/rationality_common_interest_of_many_causes/'
p551
aS'http://lesswrong.com/user/mare-of-night'
p552
aS'http://lesswrong.com/user/lisper/'
p553
aS'http://lesswrong.com/user/APXAS'
p554
aS'http://www.lesswrong.com/r/discussion/new//r/discussion/lw/n58/require_contributions_in_advance/#comments'
p555
aS'http://wiki.lesswrong.com/wiki/Less_Wrong_meetup_groups#Philadelphia.2C_PA'
p556
aS'http://www.lesswrong.com/recentposts/lw/n4e/why_cfars_mission/'
p557
aS'http://intentionalinsights.org/how-i-escaped-the-darkness-of-mental-illness'
p558
aS'http://www.lesswrong.com/comments//lw/n9y/is_spirituality_irrational/d4cd?context=1#d4cd'
p559
aS'http://www.lesswrong.com/lw/ji/conjunction_fallacy/#f67'
p560
aS'http://www.popsci.com/researchers-have-preserved-an-entire-rabbit-brain'
p561
aS'http://www.lesswrong.com/comments//lw/n9y/is_spirituality_irrational/'
p562
aS'http://www.lesswrong.com/recentposts/lw/n22/meetup_meetup_racionalidade_sao_paulo/'
p563
aS'http://www.lesswrong.com/recentposts/lw/n39/why_cfar_the_view_from_2015/'
p564
aS'http://www.alcor.org/blog/alcor-position-statement-on-brain-preservation-foundation-prize/'
p565
aS'http://www.lesswrong.com/recentposts/lw/n6s/meetup_games_in_kocherga_club_fallacymania_tower/'
p566
aS'http://wiki.lesswrong.com/wiki/Less_Wrong_meetup_groups#Southern_California.2C_CA'
p567
aS'http://lesswrong.com/user/ronmurp/'
p568
aS'http://lesswrong.com/user/lisper'
p569
aS'http://www.lesswrong.com/recentposts/lw/mwx/meetup_west_la_bias_bias/'
p570
aS'http://www.lesswrong.com/r/discussion/new//r/discussion/lw/na1/religious_and_rational/#comments'
p571
aS'http://www.lesswrong.com/recentposts/lw/mvr/meetup_san_francisco_meetup_short_talks/'
p572
aS'http://www.lesswrong.com/comments//lw/n98/rationality_quotes_thread_february_2016/'
p573
aS'http://www.lesswrong.com/recentposts/lw/mvj/meetup_sydney_rationality_dojo_november/'
p574
aS'http://www.lesswrong.com/recentposts/lw/mu5/monthly_bragging_thread_october_2015/'
p575
aS'http://wiki.lesswrong.com#column-one'
p576
aS'http://www.lesswrong.com/recentposts/lw/n0l/lesswrong_20/'
p577
aS'https://en.wikipedia.org/wiki/Against_Malaria_Foundation'
p578
aS'http://wiki.lesswrong.com/wiki/Less_Wrong_meetup_groups#Toronto'
p579
aS'http://lesswrong.com/user/malcolmocean'
p580
aS'https://wiki.lesswrong.com/wiki/Availability_heuristic'
p581
aS'http://wiki.lesswrong.com/wiki/Less_Wrong_meetup_groups#Berkeley'
p582
aS'http://lesswrong.com/lw/ji/conjunction_fallacy/c55o'
p583
aS'http://wiki.lesswrong.com/wiki/Less_Wrong_meetup_groups#Tel_Aviv.2C_Israel'
p584
aS'http://lesswrong.com/lw/jr/how_to_convince_me_that_2_2_3/d4f3'
p585
aS'http://www.lesswrong.com/recentposts/lw/mpb/meetup_washington_dc_what_if/'
p586
aS'http://code.reddit.com'
p587
aS'http://www.lesswrong.com/r/discussion/new//lw/io/is_molecular_nanotechnology_scientific/'
p588
aS'http://www.lesswrong.com/recentposts/lw/mo3/meetup_urbanachampaign_quorum_for_discourse/'
p589
aS'http://wiki.lesswrong.com'
p590
aS'http://lesswrong.com/user/gwern'
p591
aS'http://lesswrong.com/lw/ji/conjunction_fallacy/90ni'
p592
aS'http://www.lesswrong.com/recentposts/lw/mv4/meetup_reading_weekly_meetups/'
p593
aS'http://www.lesswrong.com/recentposts/lw/mxq/meetup_san_antonio_meetup/'
p594
aS'http://arxiv.org/abs/1401.5577'
p595
aS'http://www.lesswrong.com/r/discussion/new//meetups/1bg'
p596
aS'http://www.lesswrong.com/r/discussion/new//r/discussion/lw/nap/group_rationality_diary_february_2016/#comments'
p597
aS'http://www.lesswrong.com/lw/ji/conjunction_fallacy/#549z'
p598
aS'http://www.lesswrong.com/r/discussion/new//r/discussion/lw/n9k/link_how_i_escaped_the_darkness_of_mental_illness/'
p599
aS'http://www.danieldewey.net/learning-what-to-value.pdf'
p600
aS'http://www.lesswrong.com/r/discussion/new//user/matt/'
p601
aS'http://www.lesswrong.com/recentposts/lw/n85/meetup_sydney_rationality_dojo_february_2016/'
p602
aS'http://www.lesswrong.com/r/discussion/new//lw/of/dissolving_the_question/'
p603
aS'http://lesswrong.com/user/MrMind/'
p604
aS'http://www.lesswrong.com/comments//lw/n9y/is_spirituality_irrational/d4dx?context=1#d4dx'
p605
aS'http://www.lesswrong.com/r/discussion/new//r/discussion/lw/n8z/ai_safety_in_the_age_of_neural_networks_and/'
p606
aS'http://lesswrong.com/user/Bound_up'
p607
aS'http://wiki.lesswrong.com/wiki/Less_Wrong_meetup_groups'
p608
aS'http://www.lesswrong.com/recentposts/lw/n64/meetup_baltimore_area_epistemology_of_disagreement/'
p609
aS'http://www.lesswrong.com/comments//lw/nb2/the_value_of_those_in_effective_altruism/d4ce?context=1#d4ce'
p610
aS'http://www.lesswrong.com/recentposts/lw/mmo/meetup_warsaw_august_meetup/'
p611
aS'http://www.lesswrong.com/recentposts/lw/n4s/rationality_quotes_thread_january_2016/'
p612
aS'http://www.lesswrong.com/recentposts/lw/n5q/meetup_discussion_of_ai_as_a_positive_and/'
p613
aS'https://www.facebook.com/groups/144017955332/permalink/10156427446485333/'
p614
aS'http://lesswrong.com/lw/ji/conjunction_fallacy/549z'
p615
aS'http://www.lesswrong.com/recentposts/lw/n35/meetup_washington_dc_fun_games/'
p616
aS'http://lesswrong.com/user/Brilliand/'
p617
aS'http://lesswrong.com/'
p618
aS'http://www.lesswrong.com/recentposts/lw/mxn/recent_updates_to_gwernnet_20142015/'
p619
aS'http://www.lesswrong.com/recentposts/lw/lm4/effects_of_castration_on_the_life_expectancy_of/'
p620
aS'http://lesswrong.com/r/discussion/tag/open_thread'
p621
aS'http://www.lesswrong.com/recentposts/lw/naw/meetup_lw_cologne_meetup/'
p622
aS'http://lesswrong.com/user/Bill_Smith/'
p623
aS'http://www.lesswrong.com/recentposts/lw/mqe/fai_and_the_information_theory_of_pleasure/'
p624
aS'http://www.lesswrong.com/recentposts/lw/mnp/travel_through_time_to_increase_your_effectiveness/'
p625
aS'https://karpathy.github.io/2015/05/21/rnn-effectiveness/'
p626
aS'http://www.lesswrong.com/r/discussion/new//lw/qf/no_safe_defense_not_even_science/'
p627
aS'http://www.lesswrong.com/r/discussion/new//user/So8res/'
p628
aS'http://www.lesswrong.com/recentposts/lw/my4/meetup_san_francisco_meetup_fun_and_games/'
p629
aS'http://www.lesswrong.com/recentposts/lw/myq/meetup_prague_less_wrong_meetup/'
p630
aS'https://agentfoundations.org/item?id=601'
p631
aS'http://www.lesswrong.com/recentposts/lw/mqr/meetup_lesswrong_sao_paulo_meetup_at_starbucks/'
p632
aS'http://www.lesswrong.com/r/discussion/new//r/discussion/lw/n95/february_2016_media_thread/#comments'
p633
aS'http://intelligence.org/'
p634
aS'http://lesswrong.com/user/AvivaLasVegas'
p635
aS'http://lesswrong.com/r/discussion/password'
p636
aS'http://www.lesswrong.com/r/discussion/new//lw/mgf/a_map_agi_failures_modes_and_levels/'
p637
aS'http://lesswrong.com/user/necate/'
p638
aS'http://www.lesswrong.com/recentposts/lw/n4t/monthly_bragging_thread_january_2016/'
p639
aS'http://www.lesswrong.com/r/discussion/new//lw/n9m/weekly_lw_meetups/'
p640
aS'http://wiki.lesswrong.com/wiki/Less_Wrong_meetup_groups#Sydney'
p641
aS'http://theferrett.livejournal.com/2043585.html'
p642
aS'http://www.lesswrong.com/recentposts/lw/n8u/a_medical_mystery_thyroid_hormones_chronic/'
p643
aS'http://www.lesswrong.com/r/discussion/new//r/discussion/lw/n9n/request_for_help_with_economic_analysis_related/#comments'
p644
aS'http://lesswrong.com/user/Jacobian/'
p645
aS'http://www.lesswrong.com/r/discussion/new//lw/ql/my_childhood_role_model/'
p646
aS'http://www.lesswrong.com/recentposts/lw/nb1/meetup_games_in_kocherga_club_fallacymania_tower/'
p647
aS'https://agentfoundations.org/item?id=606'
p648
aS'http://wiki.lesswrong.com/wiki/Less_Wrong_meetup_groups#Research_Triangle.2C_NC_.28Raleigh.2FDurham.2FChapel_Hill.29'
p649
aS'http://lesswrong.com/user/buybuydandavis/'
p650
aS'http://www.lesswrong.com/recentposts/lw/n2g/results_of_a_oneyear_longitudinal_study_of_cfar/'
p651
aS'http://lesswrong.com/user/thrawnca/'
p652
aS'http://lesswrong.com/user/OisinMoran/'
p653
aS'http://lesswrong.com/user/jimrandomh/'
p654
aS'http://www.lesswrong.com/comments//lw/n8u/a_medical_mystery_thyroid_hormones_chronic/d2tb?context=1#d2tb'
p655
aS'http://www.lesswrong.com/recentposts/lw/n5m/meetup_moscow_meetup_guest_talk_on_why_lw/'
p656
aS'http://lesswrong.com/user/PyryP'
p657
aS'http://www.lesswrong.com/recentposts/lw/mo7/meetup_san_francisco_meetup_when_to_trust_experts/'
p658
aS'http://www.nickbostrom.com/existential/risks.html'
p659
aS'http://blog.rongarret.info/2015/01/why-i-believe-in-michelson-morley.html'
p660
aS'http://eaglobal.org/'
p661
aS'http://lesswrong.com/user/Bound_up/'
p662
aS'http://www.lesswrong.com/r/discussion/new//r/discussion/lw/n93/open_thread_feb_01_feb_07_2016/'
p663
aS'http://lesswrong.com/user/Daniel_Janzon/'
p664
aS'http://www.lesswrong.com/r/discussion/new/'
p665
aS'http://www.lesswrong.com/r/discussion/new//r/discussion/lw/n5z/value_learners_wireheading/'
p666
aS'http://www.lesswrong.com/recentposts/lw/n0v/why_startup_founders_have_mood_swings_and_why/'
p667
aS'http://www.lesswrong.com/recentposts/lw/mkj/less_wrong_ebook_creator/'
p668
aS'http://lesswrong.com/lw/m4/two_cult_koans/'
p669
aS'http://www.lesswrong.com/comments/'
p670
aS'http://www.lesswrong.com/recentposts/lw/mty/meetup_san_antonio_meetup_discussion/'
p671
aS'http://www.lesswrong.com/r/discussion/new//r/discussion/lw/nat/open_thread_feb_16_feb_23_2016/'
p672
aS'http://lesswrong.com/lw/n9y/is_spirituality_irrational/d4ez'
p673
aS'https://en.wikipedia.org/wiki/Effective_altruism'
p674
aS'http://www.lesswrong.com/recentposts/lw/mys/meetup_san_francisco_meetup_projects/'
p675
aS'http://www.lesswrong.com/r/discussion/new//r/discussion/lw/n93/open_thread_feb_01_feb_07_2016/#comments'
p676
aS'http://lesswrong.com/karma'
p677
aS'http://www.lesswrong.com/r/discussion/new//r/discussion/lw/n8v/link_how_a_lamp_took_away_my_reading_and_a_box/#comments'
p678
aS'http://lesswrong.com/user/blob'
p679
aS'http://www.brainpreservation.org/small-mammal-announcement/'
p680
aS'http://www.lesswrong.com/comments//lw/n9y/is_spirituality_irrational/d4c8?context=1#d4c8'
p681
aS'http://lesswrong.com/user/Calien'
p682
aS'http://www.lesswrong.com/r/discussion/new//lw/qk/that_alien_message/'
p683
aS'http://lesswrong.com/user/Stefan_Schubert/'
p684
aS'http://wiki.lesswrong.com/wiki/How_To_Actually_Change_Your_Mind'
p685
aS'http://lesswrong.com/user/Awlio'
p686
aS'https://wiki.lesswrong.com/wiki/Rationalist_taboo'
p687
aS'http://www.lesswrong.com/recentposts/lw/mls/meetup_less_wrong_nh_meetup/'
p688
aS'http://www.lesswrong.com/recentposts/lw/mx3/meetup_washington_dc_fun_games/'
p689
aS'http://lesswrong.com/comments/'
p690
aS'http://www.lesswrong.com/recentposts/lw/mzc/meetup_melbourne_social_meetup_november/'
p691
aS'http://lesswrong.com/user/J_Thomas/'
p692
aS'http://www.lesswrong.com/recentposts/lw/mxz/meetup_fallacymania_game_in_kocherga_club/'
p693
aS'http://wiki.lesswrong.com/wiki/Less_Wrong_meetup_groups#Boston.2C_MA'
p694
aS'http://lesswrong.com/lw/ji/conjunction_fallacy/f63'
p695
aS'http://lesswrong.com/user/Ed2/'
p696
aS'http://www.lesswrong.com/r/discussion/new//lw/qs/einsteins_superpowers/'
p697
aS'http://www.lesswrong.com/comments//lw/n8u/a_medical_mystery_thyroid_hormones_chronic/d45d?context=1#d45d'
p698
aS'http://www.lesswrong.com/lw/ji/conjunction_fallacy//password'
p699
aS'http://lesswrong.com/user/adamzerner/'
p700
aS'http://wiki.lesswrong.com/wiki/Less_Wrong_meetup_groups#London.2C_UK'
p701
aS'https://secularstudents.org/IntentionalInsights'
p702
aS'http://www.lesswrong.com/recentposts/lw/n8p/meetup_san_antonio_meetup_discussion_topic/'
p703
aS'http://lesswrong.com/recentposts/.rss'
p704
aS'http://www.lesswrong.com/recentposts/lw/mz3/meetup_san_antonio_meetup/'
p705
aS'http://lesswrong.com/user/Craig/'
p706
aS'http://www.lesswrong.com/recentposts/lw/mug/meetup_less_wrong_nh_meetup/'
p707
aS'http://www.lesswrong.com/lw/ji/conjunction_fallacy/javascript:void(0)'
p708
aS'http://www.lesswrong.com/r/discussion/new//r/discussion/lw/nad/rationality_reading_group_part_t_science_and/'
p709
aS'http://www.lesswrong.com/r/discussion/new//r/discussion/lw/nb9/goal_completion_noise_errors_bias_prejudice/'
p710
aS'http://www.lesswrong.com/r/discussion/new//r/discussion/lw/n8w/identifying_bias_a_bayesian_analysis_of/'
p711
aS'http://www.lesswrong.com/r/discussion/new//r/discussion/lw/nbd/link_videogame_with_a_very_detailed_simulated/#comments'
p712
aS'http://www.lesswrong.com/comments//r/lesswrong/lw/n5h/cfar_canon_on_applied_rationality/'
p713
aS'http://www.21cm.com/'
p714
aS"http://www.lesswrong.comjavascript:hidecover('langcover','langpopup')"
p715
aS'http://www.lesswrong.com/r/discussion/new//r/discussion/lw/n8r/yoshua_bengio_on_ai_progress_hype_and_risks/'
p716
aS'http://intentionalinsights.org/living-intentionally-3-steps-to-gaining-agency'
p717
aS'http://chronopause.com/chronopause.com/index.html'
p718
aS'http://lesswrong.com/lw/ji/conjunction_fallacy/2ac3'
p719
aS'https://en.wikipedia.org/wiki/Global_catastrophic_risk'
p720
aS'http://lesswrong.com/user/Lachouette'
p721
aS'http://lesswrong.com/user/middleagechick/'
p722
aS'http://www.lesswrong.com/r/discussion/new//r/discussion/lw/mgs/the_ai_the_best_human_advisor/'
p723
aS'http://lesswrong.com/r/discussion/new/'
p724
aS'http://www.theatlantic.com/technology/archive/2016/02/artificial-universe-no-mans-sky/463308/'
p725
aS'http://www.lesswrong.com/recentposts/lw/nam/weekly_lw_meetups/'
p726
aS'http://www.lesswrong.com/r/discussion/new//r/discussion/lw/n9w/altruistic_parenting/#comments'
p727
aS'http://www.lesswrong.com/recentposts/lw/nb6/meetup_baltimore_area_meetup_futurology_open/'
p728
aS'http://lesswrong.com/user/Vika'
p729
aS'http://lesswrong.com/lw/ji/conjunction_fallacy/f6a'
p730
aS'http://lesswrong.com/user/Squark'
p731
aS'http://www.lesswrong.com/r/discussion/new//r/discussion/lw/n8z/ai_safety_in_the_age_of_neural_networks_and/#comments'
p732
aS'http://lesswrong.com/lw/nb2/the_value_of_those_in_effective_altruism/d4e5'
p733
aS'http://wiki.lesswrong.com/wiki/Less_Wrong_meetup_groups#Seattle.2C_WA'
p734
aS'http://lesswrong.com/user/Valentine'
p735
aS'http://www.lesswrong.com/r/discussion/new//r/discussion/lw/n9t/open_thread_feb_8_feb_15_2016/'
p736
aS'http://lesswrong.com/user/Alexander230'
p737
aS'http://www.lesswrong.com/recentposts/lw/mx5/meetup_lesswrong_reading_picnic/'
p738
aS'http://www.raikoth.net/Stuff/story1.html'
p739
aS'http://wiki.lesswrong.com/wiki/Less_Wrong_meetup_groups#Buffalo.2C_NY'
p740
aS'https://m.facebook.com/yudkowsky/posts/10152588738904228'
p741
aS'http://en.wikipedia.org/wiki/List_of_cognitive_biases'
p742
aS'http://www.lesswrong.com/r/discussion/new//r/discussion/lw/naq/does_kolmogorov_complexity_imply_a_bound_on/#comments'
p743
aS'http://intentionalinsights.org/protect-your-relationships-by-cutting-off-your-anchors'
p744
aS'http://www.lesswrong.com/recentposts/lw/msi/meetup_lesswrong_hamburg/'
p745
aS'http://www.lesswrong.com/recentposts/lw/mlo/meetup_less_wrong_nh_meetup/'
p746
aS'http://www.lesswrong.com/r/discussion/new//lw/qt/class_project/'
p747
aS'http://lesswrong.com'
p748
aS'http://www.lesswrong.com/r/discussion/new//lw/kpj/multiple_factor_explanations_should_not_appear/'
p749
aS'http://www.lesswrong.com/comments//lw/jr/how_to_convince_me_that_2_2_3/d416?context=1#d416'
p750
aS"http://www.lesswrong.comjavascript:hidecover('cover','loginpopup')"
p751
aS'http://lesswrong.com/user/ex-Parrot/'
p752
aS'http://www.lesswrong.com/recentposts/lw/mro/meetup_first_meetup_in_lund/'
p753
aS'http://lesswrong.com/user/Stuart_Armstrong'
p754
aS'http://lesswrong.com/user/Doug_S./'
p755
aS'http://lesswrong.com/user/abramdemski'
p756
aS'http://bioscience.oxfordjournals.org/content/54/3/195'
p757
aS'http://gizmodo.com/brain-preservation-breakthrough-could-usher-in-a-new-er-1758022181'
p758
aS'http://www.lesswrong.com/r/discussion/new//r/discussion/lw/nat/open_thread_feb_16_feb_23_2016/#comments'
p759
aS'http://www.lesswrong.com/recentposts/lw/n3u/meetup_mirix_sleeping_beauty_discussion/'
p760
aS'http://www.lesswrong.com/recentposts/lw/mz2/meetup_san_antonio_meetup/'
p761
aS'http://lesswrong.com/user/V_V/'
p762
aS'http://www.effective-altruism.com/ea/66/parenthood_and_effective_altruism/#_ftn8'
p763
aS'http://lesswrong.com/promoted'
p764
aS'http://www.lesswrong.com/r/discussion/new//r/discussion/lw/na3/the_brain_preservation_foundations_small/#comments'
p765
aS'http://www.lesswrong.com/lw/ji/conjunction_fallacy/#c8uq'
p766
aS'http://www.lesswrong.com/r/discussion/new//lw/mid/agi_safety_solutions_map/'
p767
aS'http://www.lesswrong.com/recentposts/lw/n7f/meetup_palo_alto_meetup_lightning_talks/'
p768
aS'https://en.wikipedia.org/wiki/Harvard_architecture'
p769
aS'http://www.effective-altruism.com/ea/66/parenthood_and_effective_altruism/#_ftn7'
p770
aS'http://lesswrong.com/user/tmgerbich/'
p771
aS'http://www.lesswrong.com/recentposts/lw/mlf/an_overview_of_the_mental_model_theory/'
p772
aS'http://www.lesswrong.com/r/discussion/new//lw/qa/the_dilemma_science_or_bayes/'
p773
aS'http://www.lesswrong.com/recentposts/lw/nae/meetup_ann_arbor_meetup_21916/'
p774
aS'http://www.lesswrong.com/r/discussion/new//lw/jl3/on_saving_the_world/'
p775
aS'http://lesswrong.com/user/Sunil_Bajpai/'
p776
aS'http://www.lesswrong.com/comments/#'
p777
aS'http://www.lesswrong.com/r/discussion/new//r/discussion/lw/n8m/weekly_lw_meetups/'
p778
aS'http://lesswrong.com/r/discussion/tag/group_rationality_diary'
p779
aS'http://www.lesswrong.com/r/discussion/new//r/discussion/lw/n9m/weekly_lw_meetups/#comments'
p780
aS'http://www.lesswrong.com/lw/ji/conjunction_fallacy/'
p781
aS'http://www.lesswrong.com/recentposts/lw/n8x/meetup_lw_melb_rationality_dojo_including/'
p782
aS'http://www.lesswrong.com/recentposts/lw/n0d/meetup_less_wrong_nh_meetup/'
p783
aS'http://lesswrong.com/topcomments/'
p784
aS'http://longnow.org/clock/'
p785
aS'http://lesswrong.com/user/ChristianKl/'
p786
aS'http://www.lesswrong.com/recentposts/lw/n88/meetup_washington_dc_fun_games/'
p787
aS'http://lesswrong.com/user/Patrick'
p788
aS'http://www.lesswrong.com/recentposts/lw/mqy/meetup_west_la_factchecking/'
p789
aS'http://www.lesswrong.com/recentposts/lw/mxt/meetup_washington_dc_book_swap/'
p790
aS'http://www.lesswrong.com/recentposts/lw/n6j/meetup_san_francisco_meetup_short_talks/'
p791
aS'http://www.lesswrong.com/comments//lw/n9y/is_spirituality_irrational/d4c9?context=1#d4c9'
p792
aS'http://www.lesswrong.com/r/discussion/new//r/discussion/lw/nb3/critique_on_my_attempt_to_teach_rationality/'
p793
aS'http://lesswrong.com/user/Eliezer_Yudkowsky/'
p794
aS'http://www.lesswrong.com/recentposts/lw/ms7/meetup_australia_online_hangout/'
p795
aS'http://lesswrong.com/user/Fronken/'
p796
aS'http://lesswrong.com/user/CCC/'
p797
aS'http://www.lesswrong.com/lw/ji/conjunction_fallacy//lw/ji/conjunction_fallacy/#comments'
p798
aS'http://www.lesswrong.com/recentposts/lw/n63/extending_the_stated_objectives/'
p799
aS'http://www.lesswrong.com/recentposts/lw/n5j/meetup_rationality_dojo_picnic_in_the_park/'
p800
aS'http://lesswrong.com/lw/ih/absence_of_evidence_is_evidence_of_absence/d4fe'
p801
aS'http://www.lesswrong.com/recentposts/lw/n7j/meetup_london_diaspora_meetup_weird_foods_24012016/'
p802
aS'http://lesswrong.com/r/discussion/top/'
p803
aS'http://wiki.lesswrong.com#searchInput'
p804
aS'http://lesswrong.com/user/CronoDAS/'
p805
aS'http://www.lesswrong.com/r/discussion/new//lw/qb/science_doesnt_trust_your_rationality/'
p806
aS'http://lesswrong.com/user/iarwain1'
p807
aS'http://www.21cmpublications.com/PubFiles/102/2015McIntyreFahyASC.pdf'
p808
aS'http://www.lesswrong.com/recentposts/lw/mlq/meetup_washington_dc_mini_talks/'
p809
aS'http://www.lesswrong.com/recentposts/lw/mm3/meetup_san_francisco_meetup_fun_and_games/'
p810
aS'http://www.lesswrong.com/r/discussion/new//r/discussion/lw/n8w/identifying_bias_a_bayesian_analysis_of/#comments'
p811
aS'http://lesswrong.com/user/RobinZ'
p812
aS'http://www.lesswrong.com/r/discussion/new//r/discussion/lw/n9k/link_how_i_escaped_the_darkness_of_mental_illness/#comments'
p813
aS'http://lesswrong.com/user/Good_Burning_Plastic/'
p814
aS'http://lesswrong.com/lw/iw/positive_bias_look_into_the_dark/'
p815
aS'http://www.lesswrong.com/recentposts/lw/n4x/meetup_palo_alto_meetup_introduction_to_causal/'
p816
aS'http://lesswrong.com/user/Anders_H/'
p817
aS'http://www.lesswrong.com/recentposts/lw/mtm/meetup_rationality_meetup_vienna/'
p818
aS'http://rationality.org/'
p819
aS'http://lesswrong.com/user/johnlawrenceaspden/'
p820
aS'http://lesswrong.com/lw/ji/conjunction_fallacy/c0s9'
p821
aS'http://www.lesswrong.com/recentposts/lw/n8e/meetup_san_francisco_meetup_cooking/'
p822
aS'http://www.lesswrong.com/r/discussion/new//lw/nm/disguised_queries/'
p823
aS'http://lesswrong.com/top/'
p824
aS'http://www.lesswrong.com/r/discussion/new//r/discussion/lw/nb3/critique_on_my_attempt_to_teach_rationality/#comments'
p825
aS'http://www.lesswrong.com/comments//lw/nav/less_wrong_karma_chart_website/d4cw?context=1#d4cw'
p826
aS'http://www.lesswrong.com/recentposts/lw/mmx/meetup_oslo_lesswrong_meetup_september/'
p827
aS'http://www.lesswrong.com/recentposts/lw/mwj/meetup_less_wrong_nh_meetup/'
p828
aS'http://www.lesswrong.com/r/discussion/new//lw/kux/reverse_engineering_of_belief_structures/'
p829
aS'http://www.lesswrong.com/lw/ji/conjunction_fallacy/#6dn6'
p830
aS'http://www.lesswrong.com/comments//lw/n8u/a_medical_mystery_thyroid_hormones_chronic/d49z?context=1#d49z'
p831
aS'https://wiki.lesswrong.com/wiki/Deletion_policy'
p832
aS'http://www.lesswrong.com/recentposts/lw/mku/meetup_washington_dc_fun_and_games/'
p833
aS'http://www.lesswrong.com/recentposts/lw/naf/meetup_lesswrong_sao_paulo_monthly_meetup/'
p834
aS'http://wiki.lesswrong.com/wiki/Less_Wrong_meetup_groups#Online_Study_Hall'
p835
aS'http://www.lesswrong.com/r/discussion/new//unbelieversradio.com'
p836
aS'http://intelligence.org/files/PrivacyandTerms-Lesswrong.com.pdf'
p837
aS'http://intentionalinsights.org/succeeding-at-other-minds'
p838
aS'http://lesswrong.com/user/asd'
p839
aS'http://www.lesswrong.com/r/discussion/new//r/discussion/lw/nb4/estimating_the_probability_of_human_extinction/#comments'
p840
aS'http://lesswrong.com/lw/n98/rationality_quotes_thread_february_2016/d4d9'
p841
aS'http://lesswrong.com/user/Unnamed'
p842
aS'http://www.lesswrong.com/recentposts/lw/mrr/meetup_moscow_lw_experimental_group_meetup/'
p843
aS'http://putanumonit.com/2016/02/03/015-dating_1/'
p844
aS'http://lesswrong.com/user/Viliam_Bur/'
p845
aS'http://lesswrong.com/user/philh'
p846
aS'http://www.lesswrong.com/recentposts/lw/mmz/meetup_rochester_lesswrong_and_transhumanists/'
p847
aS'http://www.lesswrong.com/recentposts/lw/mow/meetup_washington_dc_fun_games/'
p848
aS'http://lesswrong.com/user/ScottL/'
p849
aS'http://www.lesswrong.com/recentposts/lw/nb0/meetup_moscow_2nd_lw_group_meetup/'
p850
aS'http://www.lesswrong.com/recentposts/lw/nah/meetup_san_francisco_meetup_projects/'
p851
aS'http://lesswrong.com/password'
p852
aS'http://www.lesswrong.com/recentposts/lw/mv7/meetup_san_francisco_meetup_fermi_estimates/'
p853
aS'http://www.lesswrong.com/recentposts/lw/n6h/meetup_finding_effective_altruism_with_biased/'
p854
aS'http://www.lesswrong.com/recentposts/lw/n9y/is_spirituality_irrational/'
p855
aS'http://www.lesswrong.com/recentposts/lw/mnr/meetup_rationality_reading_group_7680/'
p856
aS"http://www.lesswrong.com/r/discussion/new/javascript:hidecover('langcover','langpopup')"
p857
aS'http://www.lesswrong.com/r/discussion/new//r/discussion/lw/naq/does_kolmogorov_complexity_imply_a_bound_on/'
p858
aS'http://www.lesswrong.com/recentposts/lw/mzi/meetup_moscow_meetup_discussion_on_community/'
p859
aS'http://lesswrong.com/user/neuromancer92/'
p860
aS'http://lesswrong.com/user/Davidmanheim'
p861
aS'http://lesswrong.com/user/g_pepper/'
p862
aS'http://www.lesswrong.com/r/discussion/new//r/discussion/lw/n8o/clearing_an_overgrown_garden/#comments'
p863
aS'http://www.lesswrong.com/r/discussion/new//r/discussion/lw/nal/where_does_our_community_disagree_about/#comments'
p864
aS'http://www.lesswrong.com/recentposts/lw/n2x/the_art_of_grieving_well/'
p865
aS'http://www.effective-altruism.com/ea/66/parenthood_and_effective_altruism/'
p866
aS'http://www.lesswrong.com/r/discussion/new//lw/qg/changing_the_definition_of_science/'
p867
aS'http://wiki.lesswrong.com/wiki/Less_Wrong_meetup_groups#Berlin.2C_Germany'
p868
aS'http://www.lesswrong.com/recentposts/lw/n15/rationality_quotes_thread_december_2015/'
p869
aS'http://lesswrong.com/lw/ji/conjunction_fallacy/6ger'
p870
aS'http://www.lesswrong.com/recentposts/lw/mym/meetup_game_night_in_tel_aviv/'
p871
aS'http://www.lesswrong.com/r/discussion/new//r/discussion/lw/n5n/consequences_of_the_nonexistence_of_perfect/'
p872
aS'http://www.lesswrong.com/recentposts/lw/mmb/meetup_boston_unconference/'
p873
aS'http://lesswrong.com/user/AspiringRationalist'
p874
aS'http://www.lesswrong.com/recentposts/lw/mpc/meetup_san_antonio_meetup/'
p875
aS'http://www.lesswrong.com/r/discussion/new//r/discussion/lw/n96/principia_compat_the_potential_importance_of/#comments'
p876
aS'http://www.brainpreservation.org/asc_rabbit_fulleval/'
p877
aS"http://www.lesswrong.com/lw/ji/conjunction_fallacy/javascript:hidecover('langcover','langpopup')"
p878
aS'http://lesswrong.com/lw/ji/conjunction_fallacy/6gef'
p879
aS'http://lesswrong.com/user/turchin/'
p880
aS'http://lesswrong.com/lw/ji/conjunction_fallacy/6geo'
p881
aS'http://www.lesswrong.com/about-less-wrong/'
p882
aS'http://mindingourway.com/confidence-all-the-way-up/'
p883
atp884
Rp885
.