c__builtin__
set
p0
((lp1
S'http://news.ycombinator.comlogin?goto=news'
p2
aS'http://news.ycombinator.comitem?id=11131081'
p3
aS'http://news.ycombinator.comitem?id=11125908'
p4
aS'http://blog.claymcleod.io/2016/02/18/Creating-your-own-IPython-like-server/'
p5
aS'http://news.ycombinator.comask'
p6
aS'https://cloud.google.com/blog/big-data/2016/02/history-of-massive-scale-sorting-experiments-at-google'
p7
aS'http://news.ycombinator.comuser?id=daenney'
p8
aS'http://news.ycombinator.comvote?for=11127534&dir=up&goto=news'
p9
aS'http://news.ycombinator.comvote?for=11125938&dir=up&goto=news'
p10
aS'http://news.ycombinator.comfrom?site=theweek.com'
p11
aS'http://news.ycombinator.comuser?id=blammail'
p12
aS'http://news.ycombinator.comvote?for=11128526&dir=up&goto=news'
p13
aS'http://news.ycombinator.comfrom?site=bloomberg.com'
p14
aS'http://news.ycombinator.comvote?for=11128426&dir=up&goto=news'
p15
aS'http://blogs.wsj.com/digits/2016/02/17/software-detects-ceo-emotions-predicts-financial-performance/?mod=trending_now_5'
p16
aS'http://news.ycombinator.comuser?id=phabian'
p17
aS'http://news.ycombinator.comfrom?site=smh.com.au'
p18
aS'http://news.ycombinator.comvote?for=11129468&dir=up&goto=news'
p19
aS'http://news.ycombinator.comfrom?site=ycombinator.com'
p20
aS'http://news.ycombinator.comfrom?site=github.com'
p21
aS'http://news.ycombinator.combookmarklet.html'
p22
aS'http://news.ycombinator.comitem?id=11130831'
p23
aS'http://news.ycombinator.comfrom?site=reuters.com'
p24
aS'http://news.ycombinator.comitem?id=11127804'
p25
aS'http://news.ycombinator.comvote?for=11129170&dir=up&goto=news'
p26
aS'http://news.ycombinator.comitem?id=11128568'
p27
aS'http://news.ycombinator.comuser?id=doe88'
p28
aS'http://news.ycombinator.comnewsfaq.html'
p29
aS'http://news.ycombinator.comuser?id=axelfontaine'
p30
aS'http://www.3blue1brown.com/'
p31
aS'http://news.ycombinator.comvote?for=11128756&dir=up&goto=news'
p32
aS'http://news.ycombinator.comuser?id=vinchuco'
p33
aS'http://techcrunch.com/2016/02/18/no-apple-has-not-unlocked-70-iphones-for-law-enforcement/'
p34
aS'http://googlecloudplatform.blogspot.com/2016/02/Google-Cloud-Vision-API-enters-beta-open-to-all-to-try.html'
p35
aS'http://www.getlazarus.org/release/lazarus-1.6'
p36
aS'http://news.ycombinator.comuser?id=coleifer'
p37
aS'http://news.ycombinator.comfrom?site=techcrunch.com'
p38
aS'http://news.ycombinator.comvote?for=11125908&dir=up&goto=news'
p39
aS'http://news.ycombinator.comuser?id=adamch'
p40
aS'http://news.ycombinator.comitem?id=11131184'
p41
aS'http://mjg59.dreamwidth.org/39913.html'
p42
aS'https://www.ycombinator.com/apply/'
p43
aS'http://news.ycombinator.comvote?for=11130996&dir=up&goto=news'
p44
aS'http://news.ycombinator.comvote?for=11126897&dir=up&goto=news'
p45
aS'http://nautil.us/issue/33/attraction/the-neuroscience-of-wine'
p46
aS'http://news.ycombinator.comuser?id=runesoerensen'
p47
aS'http://news.ycombinator.comuser?id=rickhanlonii'
p48
aS'http://news.ycombinator.comuser?id=vgt'
p49
aS'd'
p50
aS'http://news.ycombinator.commailto:hn@ycombinator.com'
p51
aS'http://news.ycombinator.comvote?for=11131081&dir=up&goto=news'
p52
aS'https://defaultnamehere.tumblr.com/post/139351766005/graphing-when-your-facebook-friends-are-awake'
p53
aS'http://www.smh.com.au/lifestyle/edge-of-the-abyss-20120819-24h4r'
p54
aS'http://news.ycombinator.comnewcomments'
p55
aS'http://news.ycombinator.comuser?id=adamlvs'
p56
aS'http://news.ycombinator.comfrom?site=mjg59.dreamwidth.org'
p57
aS'http://news.ycombinator.comvote?for=11131321&dir=up&goto=news'
p58
aS'http://news.ycombinator.comnews?p=2'
p59
aS'http://techcrunch.com/2016/02/18/apple-apologizes-and-updates-ios-to-restore-iphones-disabled-by-error-53/'
p60
aS'http://venturebeat.com/2016/02/18/civilization-25-years-66-versions-33m-copies-sold-1-billion-hours-played/'
p61
aS'http://www.ycombinator.com'
p62
aS'http://news.ycombinator.comvote?for=11127804&dir=up&goto=news'
p63
aS'http://www.bloomberg.com/news/articles/2016-02-17/one-third-of-clinical-trial-results-never-disclosed-study-finds'
p64
aS'http://news.ycombinator.comfrom?site=defaultnamehere.tumblr.com'
p65
aS'http://news.ycombinator.comuser?id=vermontdevil'
p66
aS'https://github.com/blog/2105-upload-files-to-your-repositories'
p67
aS'http://news.ycombinator.comshow'
p68
aS'http://news.ycombinator.comfrom?site=arxiv.org'
p69
aS'http://news.ycombinator.comuser?id=aj_icracked'
p70
aS'http://news.ycombinator.comdmca.html'
p71
aS'http://news.ycombinator.comfrom?site=3blue1brown.com'
p72
aS'http://news.ycombinator.comuser?id=dnetesn'
p73
aS'http://news.ycombinator.comvote?for=11130481&dir=up&goto=news'
p74
aS'http://news.ycombinator.comfrom?site=getlazarus.org'
p75
aS'http://news.ycombinator.comjobs'
p76
aS'http://news.ycombinator.comfrom?site=googlecloudplatform.blogspot.com'
p77
aS'http://news.ycombinator.comvote?for=11124854&dir=up&goto=news'
p78
aS'http://www.reuters.com/article/uber-china-idUSKCN0VR1M9'
p79
aS'http://news.ycombinator.comvote?for=11131050&dir=up&goto=news'
p80
aS'http://news.ycombinator.comfrom?site=wsj.com'
p81
aS'http://news.ycombinator.comuser?id=dragonsh'
p82
aS'http://news.ycombinator.comitem?id=11130996'
p83
aS'http://news.ycombinator.comuser?id=sysrpl'
p84
aS'http://news.ycombinator.comitem?id=11129076'
p85
aS'http://news.ycombinator.comvote?for=11127972&dir=up&goto=news'
p86
aS'http://news.ycombinator.comitem?id=11130481'
p87
aS'https://theweek.com/speedreads/606641/exnsa-cia-chief-michael-hayden-sides-apple-fbi-iphone-encryption-fight'
p88
aS'http://www.ycombinator.com/why/'
p89
aS'http://news.ycombinator.comitem?id=11131038'
p90
aS'http://news.ycombinator.comitem?id=11129777'
p91
aS'https://github.com/timothycrosley/hug'
p92
aS'http://news.ycombinator.comvote?for=11130349&dir=up&goto=news'
p93
aS'http://news.ycombinator.comvote?for=11128348&dir=up&goto=news'
p94
aS'http://news.ycombinator.comitem?id=11129170'
p95
aS'http://news.ycombinator.comitem?id=11131321'
p96
aS'http://news.ycombinator.comitem?id=11128756'
p97
aS'http://news.ycombinator.comfrom?site=zephyrproject.org'
p98
aS'http://news.ycombinator.comuser?id=MarlonPro'
p99
aS'http://news.ycombinator.comfrom?site=nautil.us'
p100
aS'http://news.ycombinator.comitem?id=11131050'
p101
aS'http://news.ycombinator.comfrom?site=venturebeat.com'
p102
aS'http://news.ycombinator.comuser?id=Sami_Lehtinen'
p103
aS'http://news.ycombinator.comitem?id=11129468'
p104
aS'news.ycombinator.com'
p105
aS'http://news.ycombinator.comitem?id=11130349'
p106
aS'http://www.nytimes.com/2016/02/19/opinion/why-apple-is-right-to-challenge-an-order-to-help-the-fbi.html'
p107
aS'b'
p108
aS'http://news.ycombinator.comuser?id=Animats'
p109
aS'https://github.com/HackerNews/API'
p110
aS'http://news.ycombinator.comsecurity.html'
p111
aS'http://googlecloudplatform.blogspot.com/2016/02/Google-and-Red-Hat-announce-cloud-based-scalable-file-servers.html'
p112
aS'http://news.ycombinator.comuser?id=acdanger'
p113
aS'http://news.ycombinator.comfrom?site=ageofascent.com'
p114
aS'http://news.ycombinator.comitem?id=11128526'
p115
aS'http://news.ycombinator.comvote?for=11130681&dir=up&goto=news'
p116
aS'https://iterm2.com/version3.html'
p117
aS'http://www.bloomberg.com/features/2016-johny-srouji-apple-chief-chipmaker/'
p118
aS'https://code.google.com/p/google-security-research/issues/detail?id=703'
p119
aS'http://news.ycombinator.comnewsguidelines.html'
p120
aS'http://news.ycombinator.comitem?id=11128348'
p121
aS'http://news.ycombinator.comsubmit'
p122
aS'http://news.ycombinator.comuser?id=lrizzo'
p123
aS'http://news.ycombinator.comfrom?site=claymcleod.io'
p124
aS'http://news.ycombinator.comitem?id=11125938'
p125
aS'http://news.ycombinator.comitem?id=11131104'
p126
aS'http://news.ycombinator.comitem?id=11127972'
p127
aS'http://news.ycombinator.comfrom?site=nytimes.com'
p128
aS'http://news.ycombinator.comitem?id=11130681'
p129
aS'http://news.ycombinator.comuser?id=atondwal'
p130
aS'http://news.ycombinator.comitem?id=11128426'
p131
aS'http://news.ycombinator.comfrom?site=cloud.google.com'
p132
aS'http://news.ycombinator.comitem?id=11127534'
p133
aS'http://news.ycombinator.comuser?id=Oompa'
p134
aS'http://news.ycombinator.comvote?for=11129777&dir=up&goto=news'
p135
aS'https://lists.freebsd.org/pipermail/freebsd-net/2016-February/044737.html'
p136
aS'http://news.ycombinator.comvote?for=11129076&dir=up&goto=news'
p137
aS'http://news.ycombinator.comvote?for=11131104&dir=up&goto=news'
p138
aS'https://www.zephyrproject.org'
p139
aS'http://news.ycombinator.comvote?for=11127862&dir=up&goto=news'
p140
aS'http://news.ycombinator.comvote?for=11131184&dir=up&goto=news'
p141
aS'http://news.ycombinator.comfrom?site=iterm2.com'
p142
aS'http://news.ycombinator.comitem?id=11124854'
p143
aS'http://news.ycombinator.comuser?id=ihuman'
p144
aS'http://news.ycombinator.comvote?for=11130688&dir=up&goto=news'
p145
aS'http://www.ycombinator.com/apply/'
p146
aS'http://news.ycombinator.comuser?id=prostoalex'
p147
aS'http://news.ycombinator.comnewest'
p148
aS'http://news.ycombinator.comitem?id=11128569'
p149
aS'http://news.ycombinator.comitem?id=11130688'
p150
aS'http://news.ycombinator.comitem?id=11126897'
p151
aS'http://news.ycombinator.comvote?for=11128569&dir=up&goto=news'
p152
aS'http://news.ycombinator.comfrom?site=charlesleifer.com'
p153
aS'http://charlesleifer.com/blog/nginx-a-caching-thumbnailing-reverse-proxying-image-server-/'
p154
aS'http://news.ycombinator.comfrom?site=freebsd.org'
p155
aS'http://news.ycombinator.comvote?for=11128568&dir=up&goto=news'
p156
aS'http://news.ycombinator.comfrom?site=code.google.com'
p157
aS'http://news.ycombinator.comlists'
p158
aS'http://news.ycombinator.comuser?id=benaadams'
p159
aS'http://arxiv.org/abs/1602.02672'
p160
aS'a'
p161
aS'http://news.ycombinator.comuser?id=clmcleod'
p162
aS'http://news.ycombinator.comuser?id=augb'
p163
aS'http://news.ycombinator.comnews'
p164
aS'http://news.ycombinator.comitem?id=11127862'
p165
aS'http://news.ycombinator.comvote?for=11130831&dir=up&goto=news'
p166
aS'http://www.ageofascent.com/asp-net-core-exeeds-1-15-million-requests-12-6-gbps/'
p167
atp168
Rp169
.