c__builtin__
set
p0
((lp1
S'http://twitter.com/signalfire'
p2
aS'http://medium.com/signalfire-fund/'
p3
aS'http://angel.co/signalfire'
p4
aS'www.signalfire.com'
p5
aS'http://medium.com/signalfire-fund/announcing-signalfire-8a27788fb01f'
p6
aS'http://blogs.wsj.com/venturecapital/2015/10/14/seed-fund-signalfire-emerges-with-53-million/'
p7
atp8
Rp9
.